
matriz.elf:     file format elf32-avr

Sections:
Idx Name          Size      VMA       LMA       File off  Algn
  0 .data         00000048  00800100  000020e2  00002176  2**0
                  CONTENTS, ALLOC, LOAD, DATA
  1 .text         000020e2  00000000  00000000  00000094  2**1
                  CONTENTS, ALLOC, LOAD, READONLY, CODE
  2 .bss          00000004  00800148  00800148  000021be  2**0
                  ALLOC
  3 .comment      0000005c  00000000  00000000  000021be  2**0
                  CONTENTS, READONLY
  4 .note.gnu.avr.deviceinfo 00000040  00000000  00000000  0000221c  2**2
                  CONTENTS, READONLY
  5 .debug_aranges 000000d0  00000000  00000000  0000225c  2**0
                  CONTENTS, READONLY, DEBUGGING
  6 .debug_info   000017a6  00000000  00000000  0000232c  2**0
                  CONTENTS, READONLY, DEBUGGING
  7 .debug_abbrev 00000837  00000000  00000000  00003ad2  2**0
                  CONTENTS, READONLY, DEBUGGING
  8 .debug_line   00000a86  00000000  00000000  00004309  2**0
                  CONTENTS, READONLY, DEBUGGING
  9 .debug_frame  000004bc  00000000  00000000  00004d90  2**2
                  CONTENTS, READONLY, DEBUGGING
 10 .debug_str    000004ee  00000000  00000000  0000524c  2**0
                  CONTENTS, READONLY, DEBUGGING
 11 .debug_loc    0000206a  00000000  00000000  0000573a  2**0
                  CONTENTS, READONLY, DEBUGGING
 12 .debug_ranges 000000c0  00000000  00000000  000077a4  2**0
                  CONTENTS, READONLY, DEBUGGING

Disassembly of section .text:

00000000 <__vectors>:
       0:	0c 94 b5 00 	jmp	0x16a	; 0x16a <__ctors_end>
       4:	0c 94 d2 00 	jmp	0x1a4	; 0x1a4 <__bad_interrupt>
       8:	0c 94 d2 00 	jmp	0x1a4	; 0x1a4 <__bad_interrupt>
       c:	0c 94 d2 00 	jmp	0x1a4	; 0x1a4 <__bad_interrupt>
      10:	0c 94 d2 00 	jmp	0x1a4	; 0x1a4 <__bad_interrupt>
      14:	0c 94 d2 00 	jmp	0x1a4	; 0x1a4 <__bad_interrupt>
      18:	0c 94 d2 00 	jmp	0x1a4	; 0x1a4 <__bad_interrupt>
      1c:	0c 94 d2 00 	jmp	0x1a4	; 0x1a4 <__bad_interrupt>
      20:	0c 94 d2 00 	jmp	0x1a4	; 0x1a4 <__bad_interrupt>
      24:	0c 94 d2 00 	jmp	0x1a4	; 0x1a4 <__bad_interrupt>
      28:	0c 94 d2 00 	jmp	0x1a4	; 0x1a4 <__bad_interrupt>
      2c:	0c 94 d2 00 	jmp	0x1a4	; 0x1a4 <__bad_interrupt>
      30:	0c 94 d2 00 	jmp	0x1a4	; 0x1a4 <__bad_interrupt>
      34:	0c 94 d2 00 	jmp	0x1a4	; 0x1a4 <__bad_interrupt>
      38:	0c 94 d2 00 	jmp	0x1a4	; 0x1a4 <__bad_interrupt>
      3c:	0c 94 d2 00 	jmp	0x1a4	; 0x1a4 <__bad_interrupt>
      40:	0c 94 d2 00 	jmp	0x1a4	; 0x1a4 <__bad_interrupt>
      44:	0c 94 d2 00 	jmp	0x1a4	; 0x1a4 <__bad_interrupt>
      48:	0c 94 d2 00 	jmp	0x1a4	; 0x1a4 <__bad_interrupt>
      4c:	0c 94 d2 00 	jmp	0x1a4	; 0x1a4 <__bad_interrupt>
      50:	0c 94 d2 00 	jmp	0x1a4	; 0x1a4 <__bad_interrupt>
      54:	0c 94 d2 00 	jmp	0x1a4	; 0x1a4 <__bad_interrupt>
      58:	0c 94 d2 00 	jmp	0x1a4	; 0x1a4 <__bad_interrupt>
      5c:	0c 94 d2 00 	jmp	0x1a4	; 0x1a4 <__bad_interrupt>
      60:	0c 94 d2 00 	jmp	0x1a4	; 0x1a4 <__bad_interrupt>
      64:	0c 94 d2 00 	jmp	0x1a4	; 0x1a4 <__bad_interrupt>

00000068 <__trampolines_end>:
      68:	6e 61       	ori	r22, 0x1E	; 30
      6a:	6e 00       	.word	0x006e	; ????

0000006c <__c.2240>:
      6c:	69 6e 66 00 00 40 7a 10 f3 5a 00 a0 72 4e 18 09     inf..@z..Z..rN..
      7c:	00 10 a5 d4 e8 00 00 e8 76 48 17 00 00 e4 0b 54     ........vH.....T
      8c:	02 00 00 ca 9a 3b 00 00 00 e1 f5 05 00 00 80 96     .....;..........
      9c:	98 00 00 00 40 42 0f 00 00 00 a0 86 01 00 00 00     ....@B..........
      ac:	10 27 00 00 00 00 e8 03 00 00 00 00 64 00 00 00     .'..........d...
      bc:	00 00 0a 00 00 00 00 00 01 00 00 00 00 00 2c 76     ..............,v
      cc:	d8 88 dc 67 4f 08 23 df c1 df ae 59 e1 b1 b7 96     ...gO.#....Y....
      dc:	e5 e3 e4 53 c6 3a e6 51 99 76 96 e8 e6 c2 84 26     ...S.:.Q.v.....&
      ec:	eb 89 8c 9b 62 ed 40 7c 6f fc ef bc 9c 9f 40 f2     ....b.@|o.....@.
      fc:	ba a5 6f a5 f4 90 05 5a 2a f7 5c 93 6b 6c f9 67     ..o....Z*.\.kl.g
     10c:	6d c1 1b fc e0 e4 0d 47 fe f5 20 e6 b5 00 d0 ed     m......G.. .....
     11c:	90 2e 03 00 94 35 77 05 00 80 84 1e 08 00 00 20     .....5w........ 
     12c:	4e 0a 00 00 00 c8 0c 33 33 33 33 0f 98 6e 12 83     N......3333..n..
     13c:	11 41 ef 8d 21 14 89 3b e6 55 16 cf fe e6 db 18     .A..!..;.U......
     14c:	d1 84 4b 38 1b f7 7c 1d 90 1d a4 bb e4 24 20 32     ..K8..|......$ 2
     15c:	84 72 5e 22 81 00 c9 f1 24 ec a1 e5 3d 27           .r^"....$...='

0000016a <__ctors_end>:
     16a:	11 24       	eor	r1, r1
     16c:	1f be       	out	0x3f, r1	; 63
     16e:	cf ef       	ldi	r28, 0xFF	; 255
     170:	d8 e0       	ldi	r29, 0x08	; 8
     172:	de bf       	out	0x3e, r29	; 62
     174:	cd bf       	out	0x3d, r28	; 61

00000176 <__do_copy_data>:
     176:	11 e0       	ldi	r17, 0x01	; 1
     178:	a0 e0       	ldi	r26, 0x00	; 0
     17a:	b1 e0       	ldi	r27, 0x01	; 1
     17c:	e2 ee       	ldi	r30, 0xE2	; 226
     17e:	f0 e2       	ldi	r31, 0x20	; 32
     180:	02 c0       	rjmp	.+4      	; 0x186 <__do_copy_data+0x10>
     182:	05 90       	lpm	r0, Z+
     184:	0d 92       	st	X+, r0
     186:	a8 34       	cpi	r26, 0x48	; 72
     188:	b1 07       	cpc	r27, r17
     18a:	d9 f7       	brne	.-10     	; 0x182 <__do_copy_data+0xc>

0000018c <__do_clear_bss>:
     18c:	21 e0       	ldi	r18, 0x01	; 1
     18e:	a8 e4       	ldi	r26, 0x48	; 72
     190:	b1 e0       	ldi	r27, 0x01	; 1
     192:	01 c0       	rjmp	.+2      	; 0x196 <.do_clear_bss_start>

00000194 <.do_clear_bss_loop>:
     194:	1d 92       	st	X+, r1

00000196 <.do_clear_bss_start>:
     196:	ac 34       	cpi	r26, 0x4C	; 76
     198:	b2 07       	cpc	r27, r18
     19a:	e1 f7       	brne	.-8      	; 0x194 <.do_clear_bss_loop>
     19c:	0e 94 d7 06 	call	0xdae	; 0xdae <main>
     1a0:	0c 94 6f 10 	jmp	0x20de	; 0x20de <_exit>

000001a4 <__bad_interrupt>:
     1a4:	0c 94 00 00 	jmp	0	; 0x0 <__vectors>

000001a8 <USART_CONFIG>:
			}
			break;
		}
	}
	return;
}
     1a8:	80 e4       	ldi	r24, 0x40	; 64
     1aa:	80 93 c0 00 	sts	0x00C0, r24	; 0x8000c0 <__TEXT_REGION_LENGTH__+0x7e00c0>
     1ae:	88 e0       	ldi	r24, 0x08	; 8
     1b0:	80 93 c1 00 	sts	0x00C1, r24	; 0x8000c1 <__TEXT_REGION_LENGTH__+0x7e00c1>
     1b4:	86 e0       	ldi	r24, 0x06	; 6
     1b6:	80 93 c2 00 	sts	0x00C2, r24	; 0x8000c2 <__TEXT_REGION_LENGTH__+0x7e00c2>
     1ba:	87 e6       	ldi	r24, 0x67	; 103
     1bc:	80 93 c4 00 	sts	0x00C4, r24	; 0x8000c4 <__TEXT_REGION_LENGTH__+0x7e00c4>
     1c0:	10 92 c5 00 	sts	0x00C5, r1	; 0x8000c5 <__TEXT_REGION_LENGTH__+0x7e00c5>
     1c4:	08 95       	ret

000001c6 <USART_TRANSFER>:
     1c6:	e0 ec       	ldi	r30, 0xC0	; 192
     1c8:	f0 e0       	ldi	r31, 0x00	; 0
     1ca:	90 81       	ld	r25, Z
     1cc:	95 ff       	sbrs	r25, 5
     1ce:	fd cf       	rjmp	.-6      	; 0x1ca <USART_TRANSFER+0x4>
     1d0:	80 93 c6 00 	sts	0x00C6, r24	; 0x8000c6 <__TEXT_REGION_LENGTH__+0x7e00c6>
     1d4:	08 95       	ret

000001d6 <USART_TRANSFER_STRING>:
     1d6:	cf 93       	push	r28
     1d8:	df 93       	push	r29
     1da:	ec 01       	movw	r28, r24
     1dc:	88 81       	ld	r24, Y
     1de:	88 23       	and	r24, r24
     1e0:	31 f0       	breq	.+12     	; 0x1ee <USART_TRANSFER_STRING+0x18>
     1e2:	21 96       	adiw	r28, 0x01	; 1
     1e4:	0e 94 e3 00 	call	0x1c6	; 0x1c6 <USART_TRANSFER>
     1e8:	89 91       	ld	r24, Y+
     1ea:	81 11       	cpse	r24, r1
     1ec:	fb cf       	rjmp	.-10     	; 0x1e4 <USART_TRANSFER_STRING+0xe>
     1ee:	df 91       	pop	r29
     1f0:	cf 91       	pop	r28
     1f2:	08 95       	ret

000001f4 <USART_TRANSFER_INT>:
     1f4:	8f 92       	push	r8
     1f6:	9f 92       	push	r9
     1f8:	af 92       	push	r10
     1fa:	bf 92       	push	r11
     1fc:	df 92       	push	r13
     1fe:	ef 92       	push	r14
     200:	ff 92       	push	r15
     202:	0f 93       	push	r16
     204:	1f 93       	push	r17
     206:	cf 93       	push	r28
     208:	df 93       	push	r29
     20a:	cd b7       	in	r28, 0x3d	; 61
     20c:	de b7       	in	r29, 0x3e	; 62
     20e:	64 97       	sbiw	r28, 0x14	; 20
     210:	0f b6       	in	r0, 0x3f	; 63
     212:	f8 94       	cli
     214:	de bf       	out	0x3e, r29	; 62
     216:	0f be       	out	0x3f, r0	; 63
     218:	cd bf       	out	0x3d, r28	; 61
     21a:	9b 01       	movw	r18, r22
     21c:	ac 01       	movw	r20, r24
     21e:	7e 01       	movw	r14, r28
     220:	84 e1       	ldi	r24, 0x14	; 20
     222:	e8 0e       	add	r14, r24
     224:	f1 1c       	adc	r15, r1
     226:	02 e1       	ldi	r16, 0x12	; 18
     228:	10 e0       	ldi	r17, 0x00	; 0
     22a:	0f 2e       	mov	r0, r31
     22c:	fd ec       	ldi	r31, 0xCD	; 205
     22e:	df 2e       	mov	r13, r31
     230:	f0 2d       	mov	r31, r0
     232:	0f 2e       	mov	r0, r31
     234:	fa e0       	ldi	r31, 0x0A	; 10
     236:	8f 2e       	mov	r8, r31
     238:	91 2c       	mov	r9, r1
     23a:	a1 2c       	mov	r10, r1
     23c:	b1 2c       	mov	r11, r1
     23e:	f0 2d       	mov	r31, r0
     240:	2d 9d       	mul	r18, r13
     242:	91 2d       	mov	r25, r1
     244:	11 24       	eor	r1, r1
     246:	96 95       	lsr	r25
     248:	96 95       	lsr	r25
     24a:	96 95       	lsr	r25
     24c:	99 0f       	add	r25, r25
     24e:	89 2f       	mov	r24, r25
     250:	88 0f       	add	r24, r24
     252:	88 0f       	add	r24, r24
     254:	98 0f       	add	r25, r24
     256:	82 2f       	mov	r24, r18
     258:	89 1b       	sub	r24, r25
     25a:	80 5d       	subi	r24, 0xD0	; 208
     25c:	f7 01       	movw	r30, r14
     25e:	82 93       	st	-Z, r24
     260:	7f 01       	movw	r14, r30
     262:	ca 01       	movw	r24, r20
     264:	b9 01       	movw	r22, r18
     266:	a5 01       	movw	r20, r10
     268:	94 01       	movw	r18, r8
     26a:	0e 94 de 0c 	call	0x19bc	; 0x19bc <__divmodsi4>
     26e:	01 50       	subi	r16, 0x01	; 1
     270:	11 09       	sbc	r17, r1
     272:	21 15       	cp	r18, r1
     274:	31 05       	cpc	r19, r1
     276:	41 05       	cpc	r20, r1
     278:	51 05       	cpc	r21, r1
     27a:	19 f0       	breq	.+6      	; 0x282 <USART_TRANSFER_INT+0x8e>
     27c:	01 30       	cpi	r16, 0x01	; 1
     27e:	11 05       	cpc	r17, r1
     280:	f9 f6       	brne	.-66     	; 0x240 <USART_TRANSFER_INT+0x4c>
     282:	1c 8a       	std	Y+20, r1	; 0x14
     284:	ce 01       	movw	r24, r28
     286:	80 0f       	add	r24, r16
     288:	91 1f       	adc	r25, r17
     28a:	02 96       	adiw	r24, 0x02	; 2
     28c:	0e 94 eb 00 	call	0x1d6	; 0x1d6 <USART_TRANSFER_STRING>
     290:	64 96       	adiw	r28, 0x14	; 20
     292:	0f b6       	in	r0, 0x3f	; 63
     294:	f8 94       	cli
     296:	de bf       	out	0x3e, r29	; 62
     298:	0f be       	out	0x3f, r0	; 63
     29a:	cd bf       	out	0x3d, r28	; 61
     29c:	df 91       	pop	r29
     29e:	cf 91       	pop	r28
     2a0:	1f 91       	pop	r17
     2a2:	0f 91       	pop	r16
     2a4:	ff 90       	pop	r15
     2a6:	ef 90       	pop	r14
     2a8:	df 90       	pop	r13
     2aa:	bf 90       	pop	r11
     2ac:	af 90       	pop	r10
     2ae:	9f 90       	pop	r9
     2b0:	8f 90       	pop	r8
     2b2:	08 95       	ret

000002b4 <USART_TRANSFER_FLOAT>:
     2b4:	0f 93       	push	r16
     2b6:	1f 93       	push	r17
     2b8:	cf 93       	push	r28
     2ba:	df 93       	push	r29
     2bc:	cd b7       	in	r28, 0x3d	; 61
     2be:	de b7       	in	r29, 0x3e	; 62
     2c0:	64 97       	sbiw	r28, 0x14	; 20
     2c2:	0f b6       	in	r0, 0x3f	; 63
     2c4:	f8 94       	cli
     2c6:	de bf       	out	0x3e, r29	; 62
     2c8:	0f be       	out	0x3f, r0	; 63
     2ca:	cd bf       	out	0x3d, r28	; 61
     2cc:	9f 93       	push	r25
     2ce:	8f 93       	push	r24
     2d0:	7f 93       	push	r23
     2d2:	6f 93       	push	r22
     2d4:	86 e0       	ldi	r24, 0x06	; 6
     2d6:	91 e0       	ldi	r25, 0x01	; 1
     2d8:	9f 93       	push	r25
     2da:	8f 93       	push	r24
     2dc:	8e 01       	movw	r16, r28
     2de:	0f 5f       	subi	r16, 0xFF	; 255
     2e0:	1f 4f       	sbci	r17, 0xFF	; 255
     2e2:	1f 93       	push	r17
     2e4:	0f 93       	push	r16
     2e6:	0e 94 ee 0f 	call	0x1fdc	; 0x1fdc <sprintf>
     2ea:	c8 01       	movw	r24, r16
     2ec:	0e 94 eb 00 	call	0x1d6	; 0x1d6 <USART_TRANSFER_STRING>
     2f0:	0f b6       	in	r0, 0x3f	; 63
     2f2:	f8 94       	cli
     2f4:	de bf       	out	0x3e, r29	; 62
     2f6:	0f be       	out	0x3f, r0	; 63
     2f8:	cd bf       	out	0x3d, r28	; 61
     2fa:	64 96       	adiw	r28, 0x14	; 20
     2fc:	0f b6       	in	r0, 0x3f	; 63
     2fe:	f8 94       	cli
     300:	de bf       	out	0x3e, r29	; 62
     302:	0f be       	out	0x3f, r0	; 63
     304:	cd bf       	out	0x3d, r28	; 61
     306:	df 91       	pop	r29
     308:	cf 91       	pop	r28
     30a:	1f 91       	pop	r17
     30c:	0f 91       	pop	r16
     30e:	08 95       	ret

00000310 <MATRIZ_CREATE>:
     310:	cf 92       	push	r12
     312:	df 92       	push	r13
     314:	ff 92       	push	r15
     316:	0f 93       	push	r16
     318:	1f 93       	push	r17
     31a:	cf 93       	push	r28
     31c:	df 93       	push	r29
     31e:	18 16       	cp	r1, r24
     320:	19 06       	cpc	r1, r25
     322:	24 f5       	brge	.+72     	; 0x36c <MATRIZ_CREATE+0x5c>
     324:	16 16       	cp	r1, r22
     326:	17 06       	cpc	r1, r23
     328:	24 f5       	brge	.+72     	; 0x372 <MATRIZ_CREATE+0x62>
     32a:	49 36       	cpi	r20, 0x69	; 105
     32c:	11 f0       	breq	.+4      	; 0x332 <MATRIZ_CREATE+0x22>
     32e:	46 36       	cpi	r20, 0x66	; 102
     330:	19 f5       	brne	.+70     	; 0x378 <MATRIZ_CREATE+0x68>
     332:	f4 2e       	mov	r15, r20
     334:	6b 01       	movw	r12, r22
     336:	8c 01       	movw	r16, r24
     338:	87 e0       	ldi	r24, 0x07	; 7
     33a:	90 e0       	ldi	r25, 0x00	; 0
     33c:	0e 94 94 0d 	call	0x1b28	; 0x1b28 <malloc>
     340:	ec 01       	movw	r28, r24
     342:	1b 83       	std	Y+3, r17	; 0x03
     344:	0a 83       	std	Y+2, r16	; 0x02
     346:	dd 82       	std	Y+5, r13	; 0x05
     348:	cc 82       	std	Y+4, r12	; 0x04
     34a:	fe 82       	std	Y+6, r15	; 0x06
     34c:	64 e0       	ldi	r22, 0x04	; 4
     34e:	70 e0       	ldi	r23, 0x00	; 0
     350:	0c 9d       	mul	r16, r12
     352:	c0 01       	movw	r24, r0
     354:	0d 9d       	mul	r16, r13
     356:	90 0d       	add	r25, r0
     358:	1c 9d       	mul	r17, r12
     35a:	90 0d       	add	r25, r0
     35c:	11 24       	eor	r1, r1
     35e:	0e 94 78 0d 	call	0x1af0	; 0x1af0 <calloc>
     362:	99 83       	std	Y+1, r25	; 0x01
     364:	88 83       	st	Y, r24
     366:	8c 2f       	mov	r24, r28
     368:	9d 2f       	mov	r25, r29
     36a:	08 c0       	rjmp	.+16     	; 0x37c <MATRIZ_CREATE+0x6c>
     36c:	80 e0       	ldi	r24, 0x00	; 0
     36e:	90 e0       	ldi	r25, 0x00	; 0
     370:	05 c0       	rjmp	.+10     	; 0x37c <MATRIZ_CREATE+0x6c>
     372:	80 e0       	ldi	r24, 0x00	; 0
     374:	90 e0       	ldi	r25, 0x00	; 0
     376:	02 c0       	rjmp	.+4      	; 0x37c <MATRIZ_CREATE+0x6c>
     378:	80 e0       	ldi	r24, 0x00	; 0
     37a:	90 e0       	ldi	r25, 0x00	; 0
     37c:	df 91       	pop	r29
     37e:	cf 91       	pop	r28
     380:	1f 91       	pop	r17
     382:	0f 91       	pop	r16
     384:	ff 90       	pop	r15
     386:	df 90       	pop	r13
     388:	cf 90       	pop	r12
     38a:	08 95       	ret

0000038c <MATRIZ_EL>:
     38c:	fc 01       	movw	r30, r24
     38e:	89 2b       	or	r24, r25
     390:	a1 f0       	breq	.+40     	; 0x3ba <MATRIZ_EL+0x2e>
     392:	24 81       	ldd	r18, Z+4	; 0x04
     394:	35 81       	ldd	r19, Z+5	; 0x05
     396:	62 9f       	mul	r22, r18
     398:	c0 01       	movw	r24, r0
     39a:	63 9f       	mul	r22, r19
     39c:	90 0d       	add	r25, r0
     39e:	72 9f       	mul	r23, r18
     3a0:	90 0d       	add	r25, r0
     3a2:	11 24       	eor	r1, r1
     3a4:	48 0f       	add	r20, r24
     3a6:	59 1f       	adc	r21, r25
     3a8:	44 0f       	add	r20, r20
     3aa:	55 1f       	adc	r21, r21
     3ac:	44 0f       	add	r20, r20
     3ae:	55 1f       	adc	r21, r21
     3b0:	80 81       	ld	r24, Z
     3b2:	91 81       	ldd	r25, Z+1	; 0x01
     3b4:	84 0f       	add	r24, r20
     3b6:	95 1f       	adc	r25, r21
     3b8:	08 95       	ret
     3ba:	80 e0       	ldi	r24, 0x00	; 0
     3bc:	90 e0       	ldi	r25, 0x00	; 0
     3be:	08 95       	ret

000003c0 <MATRIZ_PRINT_EL>:
     3c0:	00 97       	sbiw	r24, 0x00	; 0
     3c2:	c9 f0       	breq	.+50     	; 0x3f6 <MATRIZ_PRINT_EL+0x36>
     3c4:	fc 01       	movw	r30, r24
     3c6:	26 81       	ldd	r18, Z+6	; 0x06
     3c8:	26 36       	cpi	r18, 0x66	; 102
     3ca:	61 f0       	breq	.+24     	; 0x3e4 <MATRIZ_PRINT_EL+0x24>
     3cc:	29 36       	cpi	r18, 0x69	; 105
     3ce:	99 f4       	brne	.+38     	; 0x3f6 <MATRIZ_PRINT_EL+0x36>
     3d0:	0e 94 c6 01 	call	0x38c	; 0x38c <MATRIZ_EL>
     3d4:	fc 01       	movw	r30, r24
     3d6:	60 81       	ld	r22, Z
     3d8:	71 81       	ldd	r23, Z+1	; 0x01
     3da:	82 81       	ldd	r24, Z+2	; 0x02
     3dc:	93 81       	ldd	r25, Z+3	; 0x03
     3de:	0e 94 fa 00 	call	0x1f4	; 0x1f4 <USART_TRANSFER_INT>
     3e2:	08 95       	ret
     3e4:	0e 94 c6 01 	call	0x38c	; 0x38c <MATRIZ_EL>
     3e8:	fc 01       	movw	r30, r24
     3ea:	60 81       	ld	r22, Z
     3ec:	71 81       	ldd	r23, Z+1	; 0x01
     3ee:	82 81       	ldd	r24, Z+2	; 0x02
     3f0:	93 81       	ldd	r25, Z+3	; 0x03
     3f2:	0e 94 5a 01 	call	0x2b4	; 0x2b4 <USART_TRANSFER_FLOAT>
     3f6:	08 95       	ret

000003f8 <MATRIZ_PRINT>:
     3f8:	af 92       	push	r10
     3fa:	bf 92       	push	r11
     3fc:	cf 92       	push	r12
     3fe:	df 92       	push	r13
     400:	ef 92       	push	r14
     402:	ff 92       	push	r15
     404:	0f 93       	push	r16
     406:	1f 93       	push	r17
     408:	cf 93       	push	r28
     40a:	df 93       	push	r29
     40c:	cd b7       	in	r28, 0x3d	; 61
     40e:	de b7       	in	r29, 0x3e	; 62
     410:	6e 97       	sbiw	r28, 0x1e	; 30
     412:	0f b6       	in	r0, 0x3f	; 63
     414:	f8 94       	cli
     416:	de bf       	out	0x3e, r29	; 62
     418:	0f be       	out	0x3f, r0	; 63
     41a:	cd bf       	out	0x3d, r28	; 61
     41c:	7c 01       	movw	r14, r24
     41e:	00 97       	sbiw	r24, 0x00	; 0
     420:	09 f4       	brne	.+2      	; 0x424 <__LOCK_REGION_LENGTH__+0x24>
     422:	5c c0       	rjmp	.+184    	; 0x4dc <__LOCK_REGION_LENGTH__+0xdc>
     424:	fc 01       	movw	r30, r24
     426:	86 81       	ldd	r24, Z+6	; 0x06
     428:	86 36       	cpi	r24, 0x66	; 102
     42a:	19 f0       	breq	.+6      	; 0x432 <__LOCK_REGION_LENGTH__+0x32>
     42c:	83 e1       	ldi	r24, 0x13	; 19
     42e:	91 e0       	ldi	r25, 0x01	; 1
     430:	02 c0       	rjmp	.+4      	; 0x436 <__LOCK_REGION_LENGTH__+0x36>
     432:	8d e0       	ldi	r24, 0x0D	; 13
     434:	91 e0       	ldi	r25, 0x01	; 1
     436:	9f 93       	push	r25
     438:	8f 93       	push	r24
     43a:	f7 01       	movw	r30, r14
     43c:	85 81       	ldd	r24, Z+5	; 0x05
     43e:	8f 93       	push	r24
     440:	84 81       	ldd	r24, Z+4	; 0x04
     442:	8f 93       	push	r24
     444:	83 81       	ldd	r24, Z+3	; 0x03
     446:	8f 93       	push	r24
     448:	82 81       	ldd	r24, Z+2	; 0x02
     44a:	8f 93       	push	r24
     44c:	87 e1       	ldi	r24, 0x17	; 23
     44e:	91 e0       	ldi	r25, 0x01	; 1
     450:	9f 93       	push	r25
     452:	8f 93       	push	r24
     454:	8e 01       	movw	r16, r28
     456:	0f 5f       	subi	r16, 0xFF	; 255
     458:	1f 4f       	sbci	r17, 0xFF	; 255
     45a:	1f 93       	push	r17
     45c:	0f 93       	push	r16
     45e:	0e 94 ee 0f 	call	0x1fdc	; 0x1fdc <sprintf>
     462:	c8 01       	movw	r24, r16
     464:	0e 94 eb 00 	call	0x1d6	; 0x1d6 <USART_TRANSFER_STRING>
     468:	0f b6       	in	r0, 0x3f	; 63
     46a:	f8 94       	cli
     46c:	de bf       	out	0x3e, r29	; 62
     46e:	0f be       	out	0x3f, r0	; 63
     470:	cd bf       	out	0x3d, r28	; 61
     472:	f7 01       	movw	r30, r14
     474:	82 81       	ldd	r24, Z+2	; 0x02
     476:	93 81       	ldd	r25, Z+3	; 0x03
     478:	18 16       	cp	r1, r24
     47a:	19 06       	cpc	r1, r25
     47c:	9c f5       	brge	.+102    	; 0x4e4 <__LOCK_REGION_LENGTH__+0xe4>
     47e:	c1 2c       	mov	r12, r1
     480:	d1 2c       	mov	r13, r1
     482:	a1 2c       	mov	r10, r1
     484:	b1 2c       	mov	r11, r1
     486:	81 e3       	ldi	r24, 0x31	; 49
     488:	91 e0       	ldi	r25, 0x01	; 1
     48a:	0e 94 eb 00 	call	0x1d6	; 0x1d6 <USART_TRANSFER_STRING>
     48e:	f7 01       	movw	r30, r14
     490:	84 81       	ldd	r24, Z+4	; 0x04
     492:	95 81       	ldd	r25, Z+5	; 0x05
     494:	18 16       	cp	r1, r24
     496:	19 06       	cpc	r1, r25
     498:	9c f4       	brge	.+38     	; 0x4c0 <__LOCK_REGION_LENGTH__+0xc0>
     49a:	0a 2d       	mov	r16, r10
     49c:	1b 2d       	mov	r17, r11
     49e:	83 e3       	ldi	r24, 0x33	; 51
     4a0:	91 e0       	ldi	r25, 0x01	; 1
     4a2:	0e 94 eb 00 	call	0x1d6	; 0x1d6 <USART_TRANSFER_STRING>
     4a6:	a8 01       	movw	r20, r16
     4a8:	b6 01       	movw	r22, r12
     4aa:	c7 01       	movw	r24, r14
     4ac:	0e 94 e0 01 	call	0x3c0	; 0x3c0 <MATRIZ_PRINT_EL>
     4b0:	0f 5f       	subi	r16, 0xFF	; 255
     4b2:	1f 4f       	sbci	r17, 0xFF	; 255
     4b4:	f7 01       	movw	r30, r14
     4b6:	84 81       	ldd	r24, Z+4	; 0x04
     4b8:	95 81       	ldd	r25, Z+5	; 0x05
     4ba:	08 17       	cp	r16, r24
     4bc:	19 07       	cpc	r17, r25
     4be:	7c f3       	brlt	.-34     	; 0x49e <__LOCK_REGION_LENGTH__+0x9e>
     4c0:	85 e3       	ldi	r24, 0x35	; 53
     4c2:	91 e0       	ldi	r25, 0x01	; 1
     4c4:	0e 94 eb 00 	call	0x1d6	; 0x1d6 <USART_TRANSFER_STRING>
     4c8:	ff ef       	ldi	r31, 0xFF	; 255
     4ca:	cf 1a       	sub	r12, r31
     4cc:	df 0a       	sbc	r13, r31
     4ce:	f7 01       	movw	r30, r14
     4d0:	82 81       	ldd	r24, Z+2	; 0x02
     4d2:	93 81       	ldd	r25, Z+3	; 0x03
     4d4:	c8 16       	cp	r12, r24
     4d6:	d9 06       	cpc	r13, r25
     4d8:	b4 f2       	brlt	.-84     	; 0x486 <__LOCK_REGION_LENGTH__+0x86>
     4da:	04 c0       	rjmp	.+8      	; 0x4e4 <__LOCK_REGION_LENGTH__+0xe4>
     4dc:	8a e3       	ldi	r24, 0x3A	; 58
     4de:	91 e0       	ldi	r25, 0x01	; 1
     4e0:	0e 94 eb 00 	call	0x1d6	; 0x1d6 <USART_TRANSFER_STRING>
     4e4:	6e 96       	adiw	r28, 0x1e	; 30
     4e6:	0f b6       	in	r0, 0x3f	; 63
     4e8:	f8 94       	cli
     4ea:	de bf       	out	0x3e, r29	; 62
     4ec:	0f be       	out	0x3f, r0	; 63
     4ee:	cd bf       	out	0x3d, r28	; 61
     4f0:	df 91       	pop	r29
     4f2:	cf 91       	pop	r28
     4f4:	1f 91       	pop	r17
     4f6:	0f 91       	pop	r16
     4f8:	ff 90       	pop	r15
     4fa:	ef 90       	pop	r14
     4fc:	df 90       	pop	r13
     4fe:	cf 90       	pop	r12
     500:	bf 90       	pop	r11
     502:	af 90       	pop	r10
     504:	08 95       	ret

00000506 <MATRIZ_FREE>:
     506:	cf 93       	push	r28
     508:	df 93       	push	r29
     50a:	dc 01       	movw	r26, r24
     50c:	ed 91       	ld	r30, X+
     50e:	fc 91       	ld	r31, X
     510:	30 97       	sbiw	r30, 0x00	; 0
     512:	59 f0       	breq	.+22     	; 0x52a <MATRIZ_FREE+0x24>
     514:	ec 01       	movw	r28, r24
     516:	80 81       	ld	r24, Z
     518:	91 81       	ldd	r25, Z+1	; 0x01
     51a:	0e 94 29 0e 	call	0x1c52	; 0x1c52 <free>
     51e:	88 81       	ld	r24, Y
     520:	99 81       	ldd	r25, Y+1	; 0x01
     522:	0e 94 29 0e 	call	0x1c52	; 0x1c52 <free>
     526:	19 82       	std	Y+1, r1	; 0x01
     528:	18 82       	st	Y, r1
     52a:	df 91       	pop	r29
     52c:	cf 91       	pop	r28
     52e:	08 95       	ret

00000530 <EL_SUM>:
ElType EL_SUM(ElType a, ElType b, char type_a, char type_b, char type_c){
     530:	4f 92       	push	r4
     532:	5f 92       	push	r5
     534:	6f 92       	push	r6
     536:	7f 92       	push	r7
     538:	8f 92       	push	r8
     53a:	9f 92       	push	r9
     53c:	af 92       	push	r10
     53e:	bf 92       	push	r11
     540:	cf 92       	push	r12
     542:	ef 92       	push	r14
     544:	0f 93       	push	r16
     546:	49 01       	movw	r8, r18
     548:	5a 01       	movw	r10, r20
     54a:	46 2e       	mov	r4, r22
     54c:	57 2e       	mov	r5, r23
     54e:	68 2e       	mov	r6, r24
     550:	79 2e       	mov	r7, r25
	ElType r;
	r.i = 0;
	switch(type_c){
     552:	26 e6       	ldi	r18, 0x66	; 102
     554:	c2 16       	cp	r12, r18
     556:	a1 f1       	breq	.+104    	; 0x5c0 <EL_SUM+0x90>
     558:	29 e6       	ldi	r18, 0x69	; 105
     55a:	c2 12       	cpse	r12, r18
     55c:	8b c0       	rjmp	.+278    	; 0x674 <EL_SUM+0x144>
		case 'i':
		r.i=0;
		switch(type_a){
     55e:	06 36       	cpi	r16, 0x66	; 102
     560:	19 f0       	breq	.+6      	; 0x568 <EL_SUM+0x38>
     562:	09 36       	cpi	r16, 0x69	; 105
     564:	89 f0       	breq	.+34     	; 0x588 <EL_SUM+0x58>
     566:	0d c0       	rjmp	.+26     	; 0x582 <EL_SUM+0x52>
			case 'i':r.i += a.i;break;
			case 'f':r.i += (int)a.f;break;
     568:	46 2e       	mov	r4, r22
     56a:	57 2e       	mov	r5, r23
     56c:	68 2e       	mov	r6, r24
     56e:	79 2e       	mov	r7, r25
     570:	c3 01       	movw	r24, r6
     572:	b2 01       	movw	r22, r4
     574:	0e 94 21 08 	call	0x1042	; 0x1042 <__fixsfsi>
     578:	2b 01       	movw	r4, r22
     57a:	77 0f       	add	r23, r23
     57c:	66 08       	sbc	r6, r6
     57e:	77 08       	sbc	r7, r7
     580:	03 c0       	rjmp	.+6      	; 0x588 <EL_SUM+0x58>
ElType EL_SUM(ElType a, ElType b, char type_a, char type_b, char type_c){
	ElType r;
	r.i = 0;
	switch(type_c){
		case 'i':
		r.i=0;
     582:	41 2c       	mov	r4, r1
     584:	51 2c       	mov	r5, r1
     586:	32 01       	movw	r6, r4
		switch(type_a){
			case 'i':r.i += a.i;break;
			case 'f':r.i += (int)a.f;break;
		}
		switch(type_b){
     588:	86 e6       	ldi	r24, 0x66	; 102
     58a:	e8 16       	cp	r14, r24
     58c:	41 f0       	breq	.+16     	; 0x59e <EL_SUM+0x6e>
     58e:	29 e6       	ldi	r18, 0x69	; 105
     590:	e2 12       	cpse	r14, r18
     592:	11 c0       	rjmp	.+34     	; 0x5b6 <EL_SUM+0x86>
			case 'i':r.i += b.i;break;
     594:	48 0c       	add	r4, r8
     596:	59 1c       	adc	r5, r9
     598:	6a 1c       	adc	r6, r10
     59a:	7b 1c       	adc	r7, r11
     59c:	0c c0       	rjmp	.+24     	; 0x5b6 <EL_SUM+0x86>
			case 'f':r.i += (int)b.f;break;
     59e:	c5 01       	movw	r24, r10
     5a0:	b4 01       	movw	r22, r8
     5a2:	0e 94 21 08 	call	0x1042	; 0x1042 <__fixsfsi>
     5a6:	cb 01       	movw	r24, r22
     5a8:	77 0f       	add	r23, r23
     5aa:	aa 0b       	sbc	r26, r26
     5ac:	bb 0b       	sbc	r27, r27
     5ae:	48 0e       	add	r4, r24
     5b0:	59 1e       	adc	r5, r25
     5b2:	6a 1e       	adc	r6, r26
     5b4:	7b 1e       	adc	r7, r27
		}
		return r;
     5b6:	64 2d       	mov	r22, r4
     5b8:	75 2d       	mov	r23, r5
     5ba:	86 2d       	mov	r24, r6
     5bc:	97 2d       	mov	r25, r7
     5be:	5e c0       	rjmp	.+188    	; 0x67c <EL_SUM+0x14c>
		case 'f':
		r.i=0;
		switch(type_a){
     5c0:	06 36       	cpi	r16, 0x66	; 102
     5c2:	71 f0       	breq	.+28     	; 0x5e0 <EL_SUM+0xb0>
     5c4:	09 36       	cpi	r16, 0x69	; 105
     5c6:	21 f5       	brne	.+72     	; 0x610 <EL_SUM+0xe0>
			case 'i':r.f += a.i;break;
     5c8:	0e 94 59 08 	call	0x10b2	; 0x10b2 <__floatsisf>
     5cc:	20 e0       	ldi	r18, 0x00	; 0
     5ce:	30 e0       	ldi	r19, 0x00	; 0
     5d0:	a9 01       	movw	r20, r18
     5d2:	0e 94 b5 07 	call	0xf6a	; 0xf6a <__addsf3>
     5d6:	46 2e       	mov	r4, r22
     5d8:	57 2e       	mov	r5, r23
     5da:	68 2e       	mov	r6, r24
     5dc:	79 2e       	mov	r7, r25
     5de:	1c c0       	rjmp	.+56     	; 0x618 <EL_SUM+0xe8>
			case 'f':r.f += (int)a.f;break;
     5e0:	46 2e       	mov	r4, r22
     5e2:	57 2e       	mov	r5, r23
     5e4:	68 2e       	mov	r6, r24
     5e6:	79 2e       	mov	r7, r25
     5e8:	c3 01       	movw	r24, r6
     5ea:	b2 01       	movw	r22, r4
     5ec:	0e 94 21 08 	call	0x1042	; 0x1042 <__fixsfsi>
     5f0:	07 2e       	mov	r0, r23
     5f2:	00 0c       	add	r0, r0
     5f4:	88 0b       	sbc	r24, r24
     5f6:	99 0b       	sbc	r25, r25
     5f8:	0e 94 59 08 	call	0x10b2	; 0x10b2 <__floatsisf>
     5fc:	20 e0       	ldi	r18, 0x00	; 0
     5fe:	30 e0       	ldi	r19, 0x00	; 0
     600:	a9 01       	movw	r20, r18
     602:	0e 94 b5 07 	call	0xf6a	; 0xf6a <__addsf3>
     606:	46 2e       	mov	r4, r22
     608:	57 2e       	mov	r5, r23
     60a:	68 2e       	mov	r6, r24
     60c:	79 2e       	mov	r7, r25
     60e:	04 c0       	rjmp	.+8      	; 0x618 <EL_SUM+0xe8>
			case 'i':r.i += b.i;break;
			case 'f':r.i += (int)b.f;break;
		}
		return r;
		case 'f':
		r.i=0;
     610:	41 2c       	mov	r4, r1
     612:	51 2c       	mov	r5, r1
     614:	61 2c       	mov	r6, r1
     616:	71 2c       	mov	r7, r1
		switch(type_a){
			case 'i':r.f += a.i;break;
			case 'f':r.f += (int)a.f;break;
		}
		switch(type_b){
     618:	86 e6       	ldi	r24, 0x66	; 102
     61a:	e8 16       	cp	r14, r24
     61c:	91 f0       	breq	.+36     	; 0x642 <EL_SUM+0x112>
     61e:	29 e6       	ldi	r18, 0x69	; 105
     620:	e2 12       	cpse	r14, r18
     622:	23 c0       	rjmp	.+70     	; 0x66a <EL_SUM+0x13a>
			case 'i':r.f += b.i;break;
     624:	c5 01       	movw	r24, r10
     626:	b4 01       	movw	r22, r8
     628:	0e 94 59 08 	call	0x10b2	; 0x10b2 <__floatsisf>
     62c:	24 2d       	mov	r18, r4
     62e:	35 2d       	mov	r19, r5
     630:	46 2d       	mov	r20, r6
     632:	57 2d       	mov	r21, r7
     634:	0e 94 b5 07 	call	0xf6a	; 0xf6a <__addsf3>
     638:	46 2e       	mov	r4, r22
     63a:	57 2e       	mov	r5, r23
     63c:	68 2e       	mov	r6, r24
     63e:	79 2e       	mov	r7, r25
     640:	14 c0       	rjmp	.+40     	; 0x66a <EL_SUM+0x13a>
			case 'f':r.f += (int)b.f;break;
     642:	c5 01       	movw	r24, r10
     644:	b4 01       	movw	r22, r8
     646:	0e 94 21 08 	call	0x1042	; 0x1042 <__fixsfsi>
     64a:	07 2e       	mov	r0, r23
     64c:	00 0c       	add	r0, r0
     64e:	88 0b       	sbc	r24, r24
     650:	99 0b       	sbc	r25, r25
     652:	0e 94 59 08 	call	0x10b2	; 0x10b2 <__floatsisf>
     656:	24 2d       	mov	r18, r4
     658:	35 2d       	mov	r19, r5
     65a:	46 2d       	mov	r20, r6
     65c:	57 2d       	mov	r21, r7
     65e:	0e 94 b5 07 	call	0xf6a	; 0xf6a <__addsf3>
     662:	46 2e       	mov	r4, r22
     664:	57 2e       	mov	r5, r23
     666:	68 2e       	mov	r6, r24
     668:	79 2e       	mov	r7, r25
		}
		return r;
     66a:	64 2d       	mov	r22, r4
     66c:	75 2d       	mov	r23, r5
     66e:	86 2d       	mov	r24, r6
     670:	97 2d       	mov	r25, r7
     672:	04 c0       	rjmp	.+8      	; 0x67c <EL_SUM+0x14c>
	}
	return r;
     674:	60 e0       	ldi	r22, 0x00	; 0
     676:	70 e0       	ldi	r23, 0x00	; 0
     678:	80 e0       	ldi	r24, 0x00	; 0
     67a:	90 e0       	ldi	r25, 0x00	; 0
}
     67c:	0f 91       	pop	r16
     67e:	ef 90       	pop	r14
     680:	cf 90       	pop	r12
     682:	bf 90       	pop	r11
     684:	af 90       	pop	r10
     686:	9f 90       	pop	r9
     688:	8f 90       	pop	r8
     68a:	7f 90       	pop	r7
     68c:	6f 90       	pop	r6
     68e:	5f 90       	pop	r5
     690:	4f 90       	pop	r4
     692:	08 95       	ret

00000694 <EL_MUL>:
ElType EL_MUL(ElType a, ElType b, char type_a, char type_b, char type_c){
     694:	4f 92       	push	r4
     696:	5f 92       	push	r5
     698:	6f 92       	push	r6
     69a:	7f 92       	push	r7
     69c:	8f 92       	push	r8
     69e:	9f 92       	push	r9
     6a0:	af 92       	push	r10
     6a2:	bf 92       	push	r11
     6a4:	cf 92       	push	r12
     6a6:	ef 92       	push	r14
     6a8:	0f 93       	push	r16
     6aa:	cf 93       	push	r28
     6ac:	df 93       	push	r29
     6ae:	49 01       	movw	r8, r18
     6b0:	5a 01       	movw	r10, r20
     6b2:	46 2e       	mov	r4, r22
     6b4:	57 2e       	mov	r5, r23
     6b6:	68 2e       	mov	r6, r24
     6b8:	79 2e       	mov	r7, r25
	ElType r;
	r.i = 0;
	switch(type_c){
     6ba:	26 e6       	ldi	r18, 0x66	; 102
     6bc:	c2 16       	cp	r12, r18
     6be:	c1 f1       	breq	.+112    	; 0x730 <EL_MUL+0x9c>
     6c0:	29 e6       	ldi	r18, 0x69	; 105
     6c2:	c2 12       	cpse	r12, r18
     6c4:	85 c0       	rjmp	.+266    	; 0x7d0 <EL_MUL+0x13c>
		case 'i':
		r.i=1;
		switch(type_a){
     6c6:	06 36       	cpi	r16, 0x66	; 102
     6c8:	19 f0       	breq	.+6      	; 0x6d0 <EL_MUL+0x3c>
     6ca:	09 36       	cpi	r16, 0x69	; 105
     6cc:	91 f0       	breq	.+36     	; 0x6f2 <EL_MUL+0x5e>
     6ce:	0d c0       	rjmp	.+26     	; 0x6ea <EL_MUL+0x56>
			case 'i':r.i *= a.i;break;
			case 'f':r.i *= (int)a.f;break;
     6d0:	46 2e       	mov	r4, r22
     6d2:	57 2e       	mov	r5, r23
     6d4:	68 2e       	mov	r6, r24
     6d6:	79 2e       	mov	r7, r25
     6d8:	c3 01       	movw	r24, r6
     6da:	b2 01       	movw	r22, r4
     6dc:	0e 94 21 08 	call	0x1042	; 0x1042 <__fixsfsi>
     6e0:	2b 01       	movw	r4, r22
     6e2:	77 0f       	add	r23, r23
     6e4:	66 08       	sbc	r6, r6
     6e6:	77 08       	sbc	r7, r7
     6e8:	04 c0       	rjmp	.+8      	; 0x6f2 <EL_MUL+0x5e>
ElType EL_MUL(ElType a, ElType b, char type_a, char type_b, char type_c){
	ElType r;
	r.i = 0;
	switch(type_c){
		case 'i':
		r.i=1;
     6ea:	41 2c       	mov	r4, r1
     6ec:	51 2c       	mov	r5, r1
     6ee:	32 01       	movw	r6, r4
     6f0:	43 94       	inc	r4
		switch(type_a){
			case 'i':r.i *= a.i;break;
			case 'f':r.i *= (int)a.f;break;
		}
		switch(type_b){
     6f2:	86 e6       	ldi	r24, 0x66	; 102
     6f4:	e8 16       	cp	r14, r24
     6f6:	61 f0       	breq	.+24     	; 0x710 <EL_MUL+0x7c>
     6f8:	29 e6       	ldi	r18, 0x69	; 105
     6fa:	e2 12       	cpse	r14, r18
     6fc:	14 c0       	rjmp	.+40     	; 0x726 <EL_MUL+0x92>
			case 'i':r.i *= b.i;break;
     6fe:	a3 01       	movw	r20, r6
     700:	92 01       	movw	r18, r4
     702:	c5 01       	movw	r24, r10
     704:	b4 01       	movw	r22, r8
     706:	0e 94 ce 0c 	call	0x199c	; 0x199c <__mulsi3>
     70a:	2b 01       	movw	r4, r22
     70c:	3c 01       	movw	r6, r24
     70e:	0b c0       	rjmp	.+22     	; 0x726 <EL_MUL+0x92>
			case 'f':r.i *= (int)b.f;break;
     710:	c5 01       	movw	r24, r10
     712:	b4 01       	movw	r22, r8
     714:	0e 94 21 08 	call	0x1042	; 0x1042 <__fixsfsi>
     718:	db 01       	movw	r26, r22
     71a:	a3 01       	movw	r20, r6
     71c:	92 01       	movw	r18, r4
     71e:	0e 94 08 0d 	call	0x1a10	; 0x1a10 <__mulshisi3>
     722:	2b 01       	movw	r4, r22
     724:	3c 01       	movw	r6, r24
		}
		return r;
     726:	64 2d       	mov	r22, r4
     728:	75 2d       	mov	r23, r5
     72a:	86 2d       	mov	r24, r6
     72c:	97 2d       	mov	r25, r7
     72e:	54 c0       	rjmp	.+168    	; 0x7d8 <EL_MUL+0x144>
		case 'f':
		r.f=1;
		switch(type_a){
     730:	06 36       	cpi	r16, 0x66	; 102
     732:	49 f0       	breq	.+18     	; 0x746 <EL_MUL+0xb2>
     734:	09 36       	cpi	r16, 0x69	; 105
     736:	d1 f4       	brne	.+52     	; 0x76c <EL_MUL+0xd8>
			case 'i':r.f *= a.i;break;
     738:	0e 94 59 08 	call	0x10b2	; 0x10b2 <__floatsisf>
     73c:	66 2e       	mov	r6, r22
     73e:	77 2e       	mov	r7, r23
     740:	d8 2f       	mov	r29, r24
     742:	c9 2f       	mov	r28, r25
     744:	17 c0       	rjmp	.+46     	; 0x774 <EL_MUL+0xe0>
			case 'f':r.f *= (int)a.f;break;
     746:	46 2e       	mov	r4, r22
     748:	57 2e       	mov	r5, r23
     74a:	68 2e       	mov	r6, r24
     74c:	79 2e       	mov	r7, r25
     74e:	c3 01       	movw	r24, r6
     750:	b2 01       	movw	r22, r4
     752:	0e 94 21 08 	call	0x1042	; 0x1042 <__fixsfsi>
     756:	07 2e       	mov	r0, r23
     758:	00 0c       	add	r0, r0
     75a:	88 0b       	sbc	r24, r24
     75c:	99 0b       	sbc	r25, r25
     75e:	0e 94 59 08 	call	0x10b2	; 0x10b2 <__floatsisf>
     762:	66 2e       	mov	r6, r22
     764:	77 2e       	mov	r7, r23
     766:	d8 2f       	mov	r29, r24
     768:	c9 2f       	mov	r28, r25
     76a:	04 c0       	rjmp	.+8      	; 0x774 <EL_MUL+0xe0>
			case 'i':r.i *= b.i;break;
			case 'f':r.i *= (int)b.f;break;
		}
		return r;
		case 'f':
		r.f=1;
     76c:	61 2c       	mov	r6, r1
     76e:	71 2c       	mov	r7, r1
     770:	d0 e8       	ldi	r29, 0x80	; 128
     772:	cf e3       	ldi	r28, 0x3F	; 63
		switch(type_a){
			case 'i':r.f *= a.i;break;
			case 'f':r.f *= (int)a.f;break;
		}
		switch(type_b){
     774:	86 e6       	ldi	r24, 0x66	; 102
     776:	e8 16       	cp	r14, r24
     778:	91 f0       	breq	.+36     	; 0x79e <EL_MUL+0x10a>
     77a:	29 e6       	ldi	r18, 0x69	; 105
     77c:	e2 12       	cpse	r14, r18
     77e:	23 c0       	rjmp	.+70     	; 0x7c6 <EL_MUL+0x132>
			case 'i':r.f *= b.i;break;
     780:	c5 01       	movw	r24, r10
     782:	b4 01       	movw	r22, r8
     784:	0e 94 59 08 	call	0x10b2	; 0x10b2 <__floatsisf>
     788:	26 2d       	mov	r18, r6
     78a:	37 2d       	mov	r19, r7
     78c:	4d 2f       	mov	r20, r29
     78e:	5c 2f       	mov	r21, r28
     790:	0e 94 e5 08 	call	0x11ca	; 0x11ca <__mulsf3>
     794:	66 2e       	mov	r6, r22
     796:	77 2e       	mov	r7, r23
     798:	d8 2f       	mov	r29, r24
     79a:	c9 2f       	mov	r28, r25
     79c:	14 c0       	rjmp	.+40     	; 0x7c6 <EL_MUL+0x132>
			case 'f':r.f *= (int)b.f;break;
     79e:	c5 01       	movw	r24, r10
     7a0:	b4 01       	movw	r22, r8
     7a2:	0e 94 21 08 	call	0x1042	; 0x1042 <__fixsfsi>
     7a6:	07 2e       	mov	r0, r23
     7a8:	00 0c       	add	r0, r0
     7aa:	88 0b       	sbc	r24, r24
     7ac:	99 0b       	sbc	r25, r25
     7ae:	0e 94 59 08 	call	0x10b2	; 0x10b2 <__floatsisf>
     7b2:	26 2d       	mov	r18, r6
     7b4:	37 2d       	mov	r19, r7
     7b6:	4d 2f       	mov	r20, r29
     7b8:	5c 2f       	mov	r21, r28
     7ba:	0e 94 e5 08 	call	0x11ca	; 0x11ca <__mulsf3>
     7be:	66 2e       	mov	r6, r22
     7c0:	77 2e       	mov	r7, r23
     7c2:	d8 2f       	mov	r29, r24
     7c4:	c9 2f       	mov	r28, r25
		}
		return r;
     7c6:	66 2d       	mov	r22, r6
     7c8:	77 2d       	mov	r23, r7
     7ca:	8d 2f       	mov	r24, r29
     7cc:	9c 2f       	mov	r25, r28
     7ce:	04 c0       	rjmp	.+8      	; 0x7d8 <EL_MUL+0x144>
	}
	return r;
     7d0:	60 e0       	ldi	r22, 0x00	; 0
     7d2:	70 e0       	ldi	r23, 0x00	; 0
     7d4:	80 e0       	ldi	r24, 0x00	; 0
     7d6:	90 e0       	ldi	r25, 0x00	; 0
}
     7d8:	df 91       	pop	r29
     7da:	cf 91       	pop	r28
     7dc:	0f 91       	pop	r16
     7de:	ef 90       	pop	r14
     7e0:	cf 90       	pop	r12
     7e2:	bf 90       	pop	r11
     7e4:	af 90       	pop	r10
     7e6:	9f 90       	pop	r9
     7e8:	8f 90       	pop	r8
     7ea:	7f 90       	pop	r7
     7ec:	6f 90       	pop	r6
     7ee:	5f 90       	pop	r5
     7f0:	4f 90       	pop	r4
     7f2:	08 95       	ret

000007f4 <MATRIZ_SUM>:
Matriz * MATRIZ_SUM(Matriz**matr, Matriz *mat1, Matriz *mat2){
     7f4:	2f 92       	push	r2
     7f6:	3f 92       	push	r3
     7f8:	4f 92       	push	r4
     7fa:	5f 92       	push	r5
     7fc:	6f 92       	push	r6
     7fe:	7f 92       	push	r7
     800:	8f 92       	push	r8
     802:	9f 92       	push	r9
     804:	af 92       	push	r10
     806:	bf 92       	push	r11
     808:	cf 92       	push	r12
     80a:	df 92       	push	r13
     80c:	ef 92       	push	r14
     80e:	ff 92       	push	r15
     810:	0f 93       	push	r16
     812:	1f 93       	push	r17
     814:	cf 93       	push	r28
     816:	df 93       	push	r29
     818:	2c 01       	movw	r4, r24
     81a:	5b 01       	movw	r10, r22
     81c:	4a 01       	movw	r8, r20
	MATRIZ_FREE(matr);
     81e:	0e 94 83 02 	call	0x506	; 0x506 <MATRIZ_FREE>
	if(mat1 && mat2 && mat1->m == mat2->m && mat1->n == mat2->n){
     822:	a1 14       	cp	r10, r1
     824:	b1 04       	cpc	r11, r1
     826:	09 f4       	brne	.+2      	; 0x82a <MATRIZ_SUM+0x36>
     828:	82 c0       	rjmp	.+260    	; 0x92e <__stack+0x2f>
     82a:	81 14       	cp	r8, r1
     82c:	91 04       	cpc	r9, r1
     82e:	09 f4       	brne	.+2      	; 0x832 <MATRIZ_SUM+0x3e>
     830:	81 c0       	rjmp	.+258    	; 0x934 <__stack+0x35>
     832:	d5 01       	movw	r26, r10
     834:	12 96       	adiw	r26, 0x02	; 2
     836:	8d 91       	ld	r24, X+
     838:	9c 91       	ld	r25, X
     83a:	13 97       	sbiw	r26, 0x03	; 3
     83c:	f4 01       	movw	r30, r8
     83e:	22 81       	ldd	r18, Z+2	; 0x02
     840:	33 81       	ldd	r19, Z+3	; 0x03
     842:	82 17       	cp	r24, r18
     844:	93 07       	cpc	r25, r19
     846:	09 f0       	breq	.+2      	; 0x84a <MATRIZ_SUM+0x56>
     848:	78 c0       	rjmp	.+240    	; 0x93a <__stack+0x3b>
     84a:	14 96       	adiw	r26, 0x04	; 4
     84c:	6d 91       	ld	r22, X+
     84e:	7c 91       	ld	r23, X
     850:	15 97       	sbiw	r26, 0x05	; 5
     852:	24 81       	ldd	r18, Z+4	; 0x04
     854:	35 81       	ldd	r19, Z+5	; 0x05
     856:	62 17       	cp	r22, r18
     858:	73 07       	cpc	r23, r19
     85a:	09 f0       	breq	.+2      	; 0x85e <MATRIZ_SUM+0x6a>
     85c:	71 c0       	rjmp	.+226    	; 0x940 <__stack+0x41>
		int i,j;
		*matr = MATRIZ_CREATE(mat1->m,mat1->n,mat1->type == 'f' || mat2->type =='f'?'f':'i');
     85e:	16 96       	adiw	r26, 0x06	; 6
     860:	4c 91       	ld	r20, X
     862:	46 36       	cpi	r20, 0x66	; 102
     864:	21 f0       	breq	.+8      	; 0x86e <MATRIZ_SUM+0x7a>
     866:	46 81       	ldd	r20, Z+6	; 0x06
     868:	46 36       	cpi	r20, 0x66	; 102
     86a:	09 f0       	breq	.+2      	; 0x86e <MATRIZ_SUM+0x7a>
     86c:	49 e6       	ldi	r20, 0x69	; 105
     86e:	0e 94 88 01 	call	0x310	; 0x310 <MATRIZ_CREATE>
     872:	fc 01       	movw	r30, r24
     874:	d2 01       	movw	r26, r4
     876:	8d 93       	st	X+, r24
     878:	9c 93       	st	X, r25
		for(i=0;i<(*matr)->m;i++)
     87a:	82 81       	ldd	r24, Z+2	; 0x02
     87c:	93 81       	ldd	r25, Z+3	; 0x03
     87e:	18 16       	cp	r1, r24
     880:	19 06       	cpc	r1, r25
     882:	0c f4       	brge	.+2      	; 0x886 <MATRIZ_SUM+0x92>
     884:	44 c0       	rjmp	.+136    	; 0x90e <__stack+0xf>
     886:	5e c0       	rjmp	.+188    	; 0x944 <__stack+0x45>
		for(j=0;j<(*matr)->n;j++)
     888:	cd 2d       	mov	r28, r13
     88a:	e0 e0       	ldi	r30, 0x00	; 0
     88c:	de 2f       	mov	r29, r30
		*MATRIZ_EL((*matr),i,j) = EL_SUM(*MATRIZ_EL(mat1,i,j),*MATRIZ_EL(mat2,i,j),mat1->type,mat2->type,(*matr)->type);
     88e:	ae 01       	movw	r20, r28
     890:	b1 01       	movw	r22, r2
     892:	c7 01       	movw	r24, r14
     894:	0e 94 c6 01 	call	0x38c	; 0x38c <MATRIZ_EL>
     898:	3c 01       	movw	r6, r24
     89a:	ae 01       	movw	r20, r28
     89c:	b1 01       	movw	r22, r2
     89e:	c4 01       	movw	r24, r8
     8a0:	0e 94 c6 01 	call	0x38c	; 0x38c <MATRIZ_EL>
     8a4:	8c 01       	movw	r16, r24
     8a6:	ae 01       	movw	r20, r28
     8a8:	b1 01       	movw	r22, r2
     8aa:	c5 01       	movw	r24, r10
     8ac:	0e 94 c6 01 	call	0x38c	; 0x38c <MATRIZ_EL>
     8b0:	d8 01       	movw	r26, r16
     8b2:	2d 91       	ld	r18, X+
     8b4:	3d 91       	ld	r19, X+
     8b6:	4d 91       	ld	r20, X+
     8b8:	5c 91       	ld	r21, X
     8ba:	fc 01       	movw	r30, r24
     8bc:	60 81       	ld	r22, Z
     8be:	71 81       	ldd	r23, Z+1	; 0x01
     8c0:	82 81       	ldd	r24, Z+2	; 0x02
     8c2:	93 81       	ldd	r25, Z+3	; 0x03
     8c4:	d7 01       	movw	r26, r14
     8c6:	16 96       	adiw	r26, 0x06	; 6
     8c8:	cc 90       	ld	r12, X
     8ca:	f4 01       	movw	r30, r8
     8cc:	e6 80       	ldd	r14, Z+6	; 0x06
     8ce:	d5 01       	movw	r26, r10
     8d0:	16 96       	adiw	r26, 0x06	; 6
     8d2:	0c 91       	ld	r16, X
     8d4:	0e 94 98 02 	call	0x530	; 0x530 <EL_SUM>
     8d8:	f3 01       	movw	r30, r6
     8da:	60 83       	st	Z, r22
     8dc:	71 83       	std	Z+1, r23	; 0x01
     8de:	82 83       	std	Z+2, r24	; 0x02
     8e0:	93 83       	std	Z+3, r25	; 0x03
	MATRIZ_FREE(matr);
	if(mat1 && mat2 && mat1->m == mat2->m && mat1->n == mat2->n){
		int i,j;
		*matr = MATRIZ_CREATE(mat1->m,mat1->n,mat1->type == 'f' || mat2->type =='f'?'f':'i');
		for(i=0;i<(*matr)->m;i++)
		for(j=0;j<(*matr)->n;j++)
     8e2:	21 96       	adiw	r28, 0x01	; 1
     8e4:	d2 01       	movw	r26, r4
     8e6:	ed 90       	ld	r14, X+
     8e8:	fc 90       	ld	r15, X
     8ea:	f7 01       	movw	r30, r14
     8ec:	84 81       	ldd	r24, Z+4	; 0x04
     8ee:	95 81       	ldd	r25, Z+5	; 0x05
     8f0:	c8 17       	cp	r28, r24
     8f2:	d9 07       	cpc	r29, r25
     8f4:	64 f2       	brlt	.-104    	; 0x88e <MATRIZ_SUM+0x9a>
Matriz * MATRIZ_SUM(Matriz**matr, Matriz *mat1, Matriz *mat2){
	MATRIZ_FREE(matr);
	if(mat1 && mat2 && mat1->m == mat2->m && mat1->n == mat2->n){
		int i,j;
		*matr = MATRIZ_CREATE(mat1->m,mat1->n,mat1->type == 'f' || mat2->type =='f'?'f':'i');
		for(i=0;i<(*matr)->m;i++)
     8f6:	ff ef       	ldi	r31, 0xFF	; 255
     8f8:	2f 1a       	sub	r2, r31
     8fa:	3f 0a       	sbc	r3, r31
     8fc:	d2 01       	movw	r26, r4
     8fe:	ed 91       	ld	r30, X+
     900:	fc 91       	ld	r31, X
     902:	82 81       	ldd	r24, Z+2	; 0x02
     904:	93 81       	ldd	r25, Z+3	; 0x03
     906:	28 16       	cp	r2, r24
     908:	39 06       	cpc	r3, r25
     90a:	24 f0       	brlt	.+8      	; 0x914 <__stack+0x15>
     90c:	1b c0       	rjmp	.+54     	; 0x944 <__stack+0x45>
     90e:	21 2c       	mov	r2, r1
     910:	31 2c       	mov	r3, r1
		for(j=0;j<(*matr)->n;j++)
     912:	d1 2c       	mov	r13, r1
     914:	f2 01       	movw	r30, r4
     916:	e0 80       	ld	r14, Z
     918:	f1 80       	ldd	r15, Z+1	; 0x01
     91a:	d7 01       	movw	r26, r14
     91c:	14 96       	adiw	r26, 0x04	; 4
     91e:	8d 91       	ld	r24, X+
     920:	9c 91       	ld	r25, X
     922:	15 97       	sbiw	r26, 0x05	; 5
     924:	18 16       	cp	r1, r24
     926:	19 06       	cpc	r1, r25
     928:	0c f4       	brge	.+2      	; 0x92c <__stack+0x2d>
     92a:	ae cf       	rjmp	.-164    	; 0x888 <MATRIZ_SUM+0x94>
     92c:	e4 cf       	rjmp	.-56     	; 0x8f6 <MATRIZ_SUM+0x102>
		*MATRIZ_EL((*matr),i,j) = EL_SUM(*MATRIZ_EL(mat1,i,j),*MATRIZ_EL(mat2,i,j),mat1->type,mat2->type,(*matr)->type);
		return *matr;
	}
	return NULL;
     92e:	e0 e0       	ldi	r30, 0x00	; 0
     930:	f0 e0       	ldi	r31, 0x00	; 0
     932:	08 c0       	rjmp	.+16     	; 0x944 <__stack+0x45>
     934:	e0 e0       	ldi	r30, 0x00	; 0
     936:	f0 e0       	ldi	r31, 0x00	; 0
     938:	05 c0       	rjmp	.+10     	; 0x944 <__stack+0x45>
     93a:	e0 e0       	ldi	r30, 0x00	; 0
     93c:	f0 e0       	ldi	r31, 0x00	; 0
     93e:	02 c0       	rjmp	.+4      	; 0x944 <__stack+0x45>
     940:	e0 e0       	ldi	r30, 0x00	; 0
     942:	f0 e0       	ldi	r31, 0x00	; 0
}
     944:	cf 01       	movw	r24, r30
     946:	df 91       	pop	r29
     948:	cf 91       	pop	r28
     94a:	1f 91       	pop	r17
     94c:	0f 91       	pop	r16
     94e:	ff 90       	pop	r15
     950:	ef 90       	pop	r14
     952:	df 90       	pop	r13
     954:	cf 90       	pop	r12
     956:	bf 90       	pop	r11
     958:	af 90       	pop	r10
     95a:	9f 90       	pop	r9
     95c:	8f 90       	pop	r8
     95e:	7f 90       	pop	r7
     960:	6f 90       	pop	r6
     962:	5f 90       	pop	r5
     964:	4f 90       	pop	r4
     966:	3f 90       	pop	r3
     968:	2f 90       	pop	r2
     96a:	08 95       	ret

0000096c <MATRIZ_MUL_ESCAL>:
Matriz * MATRIZ_MUL_ESCAL(Matriz ** matr, Matriz*mat1,ElType es,char type){
     96c:	2f 92       	push	r2
     96e:	3f 92       	push	r3
     970:	4f 92       	push	r4
     972:	5f 92       	push	r5
     974:	6f 92       	push	r6
     976:	7f 92       	push	r7
     978:	8f 92       	push	r8
     97a:	9f 92       	push	r9
     97c:	af 92       	push	r10
     97e:	bf 92       	push	r11
     980:	cf 92       	push	r12
     982:	df 92       	push	r13
     984:	ef 92       	push	r14
     986:	ff 92       	push	r15
     988:	0f 93       	push	r16
     98a:	1f 93       	push	r17
     98c:	cf 93       	push	r28
     98e:	df 93       	push	r29
     990:	00 d0       	rcall	.+0      	; 0x992 <MATRIZ_MUL_ESCAL+0x26>
     992:	00 d0       	rcall	.+0      	; 0x994 <MATRIZ_MUL_ESCAL+0x28>
     994:	cd b7       	in	r28, 0x3d	; 61
     996:	de b7       	in	r29, 0x3e	; 62
     998:	1c 01       	movw	r2, r24
     99a:	5b 01       	movw	r10, r22
     99c:	29 83       	std	Y+1, r18	; 0x01
     99e:	3a 83       	std	Y+2, r19	; 0x02
     9a0:	4b 83       	std	Y+3, r20	; 0x03
     9a2:	5c 83       	std	Y+4, r21	; 0x04
     9a4:	f0 2e       	mov	r15, r16
	int i,j;
	MATRIZ_FREE(matr);
     9a6:	0e 94 83 02 	call	0x506	; 0x506 <MATRIZ_FREE>
	if(mat1){
     9aa:	a1 14       	cp	r10, r1
     9ac:	b1 04       	cpc	r11, r1
     9ae:	09 f4       	brne	.+2      	; 0x9b2 <MATRIZ_MUL_ESCAL+0x46>
     9b0:	6b c0       	rjmp	.+214    	; 0xa88 <MATRIZ_MUL_ESCAL+0x11c>
		*matr = MATRIZ_CREATE(mat1->m,mat1->n,mat1->type == 'f' || type =='f'?'f':'i');
     9b2:	d5 01       	movw	r26, r10
     9b4:	16 96       	adiw	r26, 0x06	; 6
     9b6:	4c 91       	ld	r20, X
     9b8:	46 36       	cpi	r20, 0x66	; 102
     9ba:	31 f0       	breq	.+12     	; 0x9c8 <MATRIZ_MUL_ESCAL+0x5c>
     9bc:	b6 e6       	ldi	r27, 0x66	; 102
     9be:	0b 17       	cp	r16, r27
     9c0:	11 f0       	breq	.+4      	; 0x9c6 <MATRIZ_MUL_ESCAL+0x5a>
     9c2:	49 e6       	ldi	r20, 0x69	; 105
     9c4:	01 c0       	rjmp	.+2      	; 0x9c8 <MATRIZ_MUL_ESCAL+0x5c>
     9c6:	46 e6       	ldi	r20, 0x66	; 102
     9c8:	f5 01       	movw	r30, r10
     9ca:	64 81       	ldd	r22, Z+4	; 0x04
     9cc:	75 81       	ldd	r23, Z+5	; 0x05
     9ce:	82 81       	ldd	r24, Z+2	; 0x02
     9d0:	93 81       	ldd	r25, Z+3	; 0x03
     9d2:	0e 94 88 01 	call	0x310	; 0x310 <MATRIZ_CREATE>
     9d6:	fc 01       	movw	r30, r24
     9d8:	d1 01       	movw	r26, r2
     9da:	8d 93       	st	X+, r24
     9dc:	9c 93       	st	X, r25
		for(i=0;i<(*matr)->m;i++)
     9de:	82 81       	ldd	r24, Z+2	; 0x02
     9e0:	93 81       	ldd	r25, Z+3	; 0x03
     9e2:	18 16       	cp	r1, r24
     9e4:	19 06       	cpc	r1, r25
     9e6:	0c f4       	brge	.+2      	; 0x9ea <MATRIZ_MUL_ESCAL+0x7e>
     9e8:	3f c0       	rjmp	.+126    	; 0xa68 <MATRIZ_MUL_ESCAL+0xfc>
     9ea:	50 c0       	rjmp	.+160    	; 0xa8c <MATRIZ_MUL_ESCAL+0x120>
		for(j=0;j<(*matr)->n;j++)
     9ec:	4d 2c       	mov	r4, r13
     9ee:	51 2c       	mov	r5, r1
		*MATRIZ_EL(*matr,i,j) = EL_MUL(*MATRIZ_EL(mat1,i,j),es,mat1->type,type,(*matr)->type);
     9f0:	a2 01       	movw	r20, r4
     9f2:	b3 01       	movw	r22, r6
     9f4:	c8 01       	movw	r24, r16
     9f6:	0e 94 c6 01 	call	0x38c	; 0x38c <MATRIZ_EL>
     9fa:	4c 01       	movw	r8, r24
     9fc:	a2 01       	movw	r20, r4
     9fe:	b3 01       	movw	r22, r6
     a00:	c5 01       	movw	r24, r10
     a02:	0e 94 c6 01 	call	0x38c	; 0x38c <MATRIZ_EL>
     a06:	fc 01       	movw	r30, r24
     a08:	60 81       	ld	r22, Z
     a0a:	71 81       	ldd	r23, Z+1	; 0x01
     a0c:	82 81       	ldd	r24, Z+2	; 0x02
     a0e:	93 81       	ldd	r25, Z+3	; 0x03
     a10:	d8 01       	movw	r26, r16
     a12:	16 96       	adiw	r26, 0x06	; 6
     a14:	cc 90       	ld	r12, X
     a16:	ef 2c       	mov	r14, r15
     a18:	f5 01       	movw	r30, r10
     a1a:	06 81       	ldd	r16, Z+6	; 0x06
     a1c:	29 81       	ldd	r18, Y+1	; 0x01
     a1e:	3a 81       	ldd	r19, Y+2	; 0x02
     a20:	4b 81       	ldd	r20, Y+3	; 0x03
     a22:	5c 81       	ldd	r21, Y+4	; 0x04
     a24:	0e 94 4a 03 	call	0x694	; 0x694 <EL_MUL>
     a28:	d4 01       	movw	r26, r8
     a2a:	6d 93       	st	X+, r22
     a2c:	7d 93       	st	X+, r23
     a2e:	8d 93       	st	X+, r24
     a30:	9c 93       	st	X, r25
     a32:	13 97       	sbiw	r26, 0x03	; 3
	int i,j;
	MATRIZ_FREE(matr);
	if(mat1){
		*matr = MATRIZ_CREATE(mat1->m,mat1->n,mat1->type == 'f' || type =='f'?'f':'i');
		for(i=0;i<(*matr)->m;i++)
		for(j=0;j<(*matr)->n;j++)
     a34:	bf ef       	ldi	r27, 0xFF	; 255
     a36:	4b 1a       	sub	r4, r27
     a38:	5b 0a       	sbc	r5, r27
     a3a:	f1 01       	movw	r30, r2
     a3c:	00 81       	ld	r16, Z
     a3e:	11 81       	ldd	r17, Z+1	; 0x01
     a40:	d8 01       	movw	r26, r16
     a42:	14 96       	adiw	r26, 0x04	; 4
     a44:	8d 91       	ld	r24, X+
     a46:	9c 91       	ld	r25, X
     a48:	15 97       	sbiw	r26, 0x05	; 5
     a4a:	48 16       	cp	r4, r24
     a4c:	59 06       	cpc	r5, r25
     a4e:	84 f2       	brlt	.-96     	; 0x9f0 <MATRIZ_MUL_ESCAL+0x84>
Matriz * MATRIZ_MUL_ESCAL(Matriz ** matr, Matriz*mat1,ElType es,char type){
	int i,j;
	MATRIZ_FREE(matr);
	if(mat1){
		*matr = MATRIZ_CREATE(mat1->m,mat1->n,mat1->type == 'f' || type =='f'?'f':'i');
		for(i=0;i<(*matr)->m;i++)
     a50:	bf ef       	ldi	r27, 0xFF	; 255
     a52:	6b 1a       	sub	r6, r27
     a54:	7b 0a       	sbc	r7, r27
     a56:	d1 01       	movw	r26, r2
     a58:	ed 91       	ld	r30, X+
     a5a:	fc 91       	ld	r31, X
     a5c:	82 81       	ldd	r24, Z+2	; 0x02
     a5e:	93 81       	ldd	r25, Z+3	; 0x03
     a60:	68 16       	cp	r6, r24
     a62:	79 06       	cpc	r7, r25
     a64:	24 f0       	brlt	.+8      	; 0xa6e <MATRIZ_MUL_ESCAL+0x102>
     a66:	12 c0       	rjmp	.+36     	; 0xa8c <MATRIZ_MUL_ESCAL+0x120>
     a68:	61 2c       	mov	r6, r1
     a6a:	71 2c       	mov	r7, r1
		for(j=0;j<(*matr)->n;j++)
     a6c:	d1 2c       	mov	r13, r1
     a6e:	f1 01       	movw	r30, r2
     a70:	00 81       	ld	r16, Z
     a72:	11 81       	ldd	r17, Z+1	; 0x01
     a74:	d8 01       	movw	r26, r16
     a76:	14 96       	adiw	r26, 0x04	; 4
     a78:	8d 91       	ld	r24, X+
     a7a:	9c 91       	ld	r25, X
     a7c:	15 97       	sbiw	r26, 0x05	; 5
     a7e:	18 16       	cp	r1, r24
     a80:	19 06       	cpc	r1, r25
     a82:	0c f4       	brge	.+2      	; 0xa86 <MATRIZ_MUL_ESCAL+0x11a>
     a84:	b3 cf       	rjmp	.-154    	; 0x9ec <MATRIZ_MUL_ESCAL+0x80>
     a86:	e4 cf       	rjmp	.-56     	; 0xa50 <MATRIZ_MUL_ESCAL+0xe4>
		*MATRIZ_EL(*matr,i,j) = EL_MUL(*MATRIZ_EL(mat1,i,j),es,mat1->type,type,(*matr)->type);
		return *matr;
	}
	return NULL;
     a88:	e0 e0       	ldi	r30, 0x00	; 0
     a8a:	f0 e0       	ldi	r31, 0x00	; 0
}
     a8c:	cf 01       	movw	r24, r30
     a8e:	0f 90       	pop	r0
     a90:	0f 90       	pop	r0
     a92:	0f 90       	pop	r0
     a94:	0f 90       	pop	r0
     a96:	df 91       	pop	r29
     a98:	cf 91       	pop	r28
     a9a:	1f 91       	pop	r17
     a9c:	0f 91       	pop	r16
     a9e:	ff 90       	pop	r15
     aa0:	ef 90       	pop	r14
     aa2:	df 90       	pop	r13
     aa4:	cf 90       	pop	r12
     aa6:	bf 90       	pop	r11
     aa8:	af 90       	pop	r10
     aaa:	9f 90       	pop	r9
     aac:	8f 90       	pop	r8
     aae:	7f 90       	pop	r7
     ab0:	6f 90       	pop	r6
     ab2:	5f 90       	pop	r5
     ab4:	4f 90       	pop	r4
     ab6:	3f 90       	pop	r3
     ab8:	2f 90       	pop	r2
     aba:	08 95       	ret

00000abc <MATRIZ_MUL>:
Matriz * MATRIZ_MUL(Matriz** matr, Matriz *mat1, Matriz *mat2){
     abc:	2f 92       	push	r2
     abe:	3f 92       	push	r3
     ac0:	4f 92       	push	r4
     ac2:	5f 92       	push	r5
     ac4:	6f 92       	push	r6
     ac6:	7f 92       	push	r7
     ac8:	8f 92       	push	r8
     aca:	9f 92       	push	r9
     acc:	af 92       	push	r10
     ace:	bf 92       	push	r11
     ad0:	cf 92       	push	r12
     ad2:	df 92       	push	r13
     ad4:	ef 92       	push	r14
     ad6:	ff 92       	push	r15
     ad8:	0f 93       	push	r16
     ada:	1f 93       	push	r17
     adc:	cf 93       	push	r28
     ade:	df 93       	push	r29
     ae0:	cd b7       	in	r28, 0x3d	; 61
     ae2:	de b7       	in	r29, 0x3e	; 62
     ae4:	29 97       	sbiw	r28, 0x09	; 9
     ae6:	0f b6       	in	r0, 0x3f	; 63
     ae8:	f8 94       	cli
     aea:	de bf       	out	0x3e, r29	; 62
     aec:	0f be       	out	0x3f, r0	; 63
     aee:	cd bf       	out	0x3d, r28	; 61
     af0:	4c 01       	movw	r8, r24
     af2:	5b 01       	movw	r10, r22
     af4:	2a 01       	movw	r4, r20
	MATRIZ_FREE(matr);
     af6:	0e 94 83 02 	call	0x506	; 0x506 <MATRIZ_FREE>
	if(mat1 && mat2 && mat1->n == mat2->m){
     afa:	a1 14       	cp	r10, r1
     afc:	b1 04       	cpc	r11, r1
     afe:	09 f4       	brne	.+2      	; 0xb02 <MATRIZ_MUL+0x46>
     b00:	c7 c0       	rjmp	.+398    	; 0xc90 <MATRIZ_MUL+0x1d4>
     b02:	41 14       	cp	r4, r1
     b04:	51 04       	cpc	r5, r1
     b06:	09 f4       	brne	.+2      	; 0xb0a <MATRIZ_MUL+0x4e>
     b08:	c3 c0       	rjmp	.+390    	; 0xc90 <MATRIZ_MUL+0x1d4>
     b0a:	d5 01       	movw	r26, r10
     b0c:	14 96       	adiw	r26, 0x04	; 4
     b0e:	2d 91       	ld	r18, X+
     b10:	3c 91       	ld	r19, X
     b12:	15 97       	sbiw	r26, 0x05	; 5
     b14:	f2 01       	movw	r30, r4
     b16:	82 81       	ldd	r24, Z+2	; 0x02
     b18:	93 81       	ldd	r25, Z+3	; 0x03
     b1a:	28 17       	cp	r18, r24
     b1c:	39 07       	cpc	r19, r25
     b1e:	09 f0       	breq	.+2      	; 0xb22 <MATRIZ_MUL+0x66>
     b20:	b7 c0       	rjmp	.+366    	; 0xc90 <MATRIZ_MUL+0x1d4>
		int i,j,k;
		*matr = MATRIZ_CREATE(mat1->m,mat2->n,mat1->type == 'f' || mat2->type =='f'?'f':'i');
     b22:	16 96       	adiw	r26, 0x06	; 6
     b24:	4c 91       	ld	r20, X
     b26:	46 36       	cpi	r20, 0x66	; 102
     b28:	21 f0       	breq	.+8      	; 0xb32 <MATRIZ_MUL+0x76>
     b2a:	46 81       	ldd	r20, Z+6	; 0x06
     b2c:	46 36       	cpi	r20, 0x66	; 102
     b2e:	09 f0       	breq	.+2      	; 0xb32 <MATRIZ_MUL+0x76>
     b30:	49 e6       	ldi	r20, 0x69	; 105
     b32:	d2 01       	movw	r26, r4
     b34:	14 96       	adiw	r26, 0x04	; 4
     b36:	6d 91       	ld	r22, X+
     b38:	7c 91       	ld	r23, X
     b3a:	15 97       	sbiw	r26, 0x05	; 5
     b3c:	f5 01       	movw	r30, r10
     b3e:	82 81       	ldd	r24, Z+2	; 0x02
     b40:	93 81       	ldd	r25, Z+3	; 0x03
     b42:	0e 94 88 01 	call	0x310	; 0x310 <MATRIZ_CREATE>
     b46:	d4 01       	movw	r26, r8
     b48:	8d 93       	st	X+, r24
     b4a:	9c 93       	st	X, r25
		for(i=0;i<(*matr)->m;i++)
     b4c:	fc 01       	movw	r30, r24
     b4e:	82 81       	ldd	r24, Z+2	; 0x02
     b50:	93 81       	ldd	r25, Z+3	; 0x03
     b52:	18 16       	cp	r1, r24
     b54:	19 06       	cpc	r1, r25
     b56:	0c f4       	brge	.+2      	; 0xb5a <MATRIZ_MUL+0x9e>
     b58:	8a c0       	rjmp	.+276    	; 0xc6e <MATRIZ_MUL+0x1b2>
     b5a:	9a c0       	rjmp	.+308    	; 0xc90 <MATRIZ_MUL+0x1d4>
		for(j=0;j<(*matr)->n;j++){
     b5c:	21 2c       	mov	r2, r1
     b5e:	31 2c       	mov	r3, r1
			MATRIZ_EL(*matr,i,j)->i=0;
     b60:	a1 01       	movw	r20, r2
     b62:	b3 01       	movw	r22, r6
     b64:	0e 94 c6 01 	call	0x38c	; 0x38c <MATRIZ_EL>
     b68:	dc 01       	movw	r26, r24
     b6a:	1d 92       	st	X+, r1
     b6c:	1d 92       	st	X+, r1
     b6e:	1d 92       	st	X+, r1
     b70:	1c 92       	st	X, r1
     b72:	13 97       	sbiw	r26, 0x03	; 3
			for(k=0;k<mat1->n;k++){
     b74:	f5 01       	movw	r30, r10
     b76:	84 81       	ldd	r24, Z+4	; 0x04
     b78:	95 81       	ldd	r25, Z+5	; 0x05
     b7a:	18 16       	cp	r1, r24
     b7c:	19 06       	cpc	r1, r25
     b7e:	0c f0       	brlt	.+2      	; 0xb82 <MATRIZ_MUL+0xc6>
     b80:	5b c0       	rjmp	.+182    	; 0xc38 <MATRIZ_MUL+0x17c>
     b82:	d8 86       	std	Y+8, r13	; 0x08
     b84:	ff 81       	ldd	r31, Y+7	; 0x07
     b86:	f9 87       	std	Y+9, r31	; 0x09
				*MATRIZ_EL(*matr,i,j) = EL_SUM(*MATRIZ_EL(*matr,i,j),
     b88:	d4 01       	movw	r26, r8
     b8a:	0d 91       	ld	r16, X+
     b8c:	1c 91       	ld	r17, X
     b8e:	a1 01       	movw	r20, r2
     b90:	b3 01       	movw	r22, r6
     b92:	c8 01       	movw	r24, r16
     b94:	0e 94 c6 01 	call	0x38c	; 0x38c <MATRIZ_EL>
     b98:	9a 83       	std	Y+2, r25	; 0x02
     b9a:	89 83       	std	Y+1, r24	; 0x01
     b9c:	f8 01       	movw	r30, r16
     b9e:	16 81       	ldd	r17, Z+6	; 0x06
				EL_MUL(*MATRIZ_EL(mat1,i,k),*MATRIZ_EL(mat2,k,j),
     ba0:	a1 01       	movw	r20, r2
     ba2:	68 85       	ldd	r22, Y+8	; 0x08
     ba4:	79 85       	ldd	r23, Y+9	; 0x09
     ba6:	c2 01       	movw	r24, r4
     ba8:	0e 94 c6 01 	call	0x38c	; 0x38c <MATRIZ_EL>
     bac:	7c 01       	movw	r14, r24
     bae:	48 85       	ldd	r20, Y+8	; 0x08
     bb0:	59 85       	ldd	r21, Y+9	; 0x09
     bb2:	b3 01       	movw	r22, r6
     bb4:	c5 01       	movw	r24, r10
     bb6:	0e 94 c6 01 	call	0x38c	; 0x38c <MATRIZ_EL>
		*matr = MATRIZ_CREATE(mat1->m,mat2->n,mat1->type == 'f' || mat2->type =='f'?'f':'i');
		for(i=0;i<(*matr)->m;i++)
		for(j=0;j<(*matr)->n;j++){
			MATRIZ_EL(*matr,i,j)->i=0;
			for(k=0;k<mat1->n;k++){
				*MATRIZ_EL(*matr,i,j) = EL_SUM(*MATRIZ_EL(*matr,i,j),
     bba:	d7 01       	movw	r26, r14
     bbc:	2d 91       	ld	r18, X+
     bbe:	3d 91       	ld	r19, X+
     bc0:	4d 91       	ld	r20, X+
     bc2:	5c 91       	ld	r21, X
     bc4:	fc 01       	movw	r30, r24
     bc6:	60 81       	ld	r22, Z
     bc8:	71 81       	ldd	r23, Z+1	; 0x01
     bca:	82 81       	ldd	r24, Z+2	; 0x02
     bcc:	93 81       	ldd	r25, Z+3	; 0x03
     bce:	c1 2e       	mov	r12, r17
     bd0:	d2 01       	movw	r26, r4
     bd2:	16 96       	adiw	r26, 0x06	; 6
     bd4:	ec 90       	ld	r14, X
     bd6:	f5 01       	movw	r30, r10
     bd8:	06 81       	ldd	r16, Z+6	; 0x06
     bda:	0e 94 4a 03 	call	0x694	; 0x694 <EL_MUL>
     bde:	6b 83       	std	Y+3, r22	; 0x03
     be0:	7c 83       	std	Y+4, r23	; 0x04
     be2:	8d 83       	std	Y+5, r24	; 0x05
     be4:	9e 83       	std	Y+6, r25	; 0x06
     be6:	a1 01       	movw	r20, r2
     be8:	b3 01       	movw	r22, r6
     bea:	d4 01       	movw	r26, r8
     bec:	8d 91       	ld	r24, X+
     bee:	9c 91       	ld	r25, X
     bf0:	0e 94 c6 01 	call	0x38c	; 0x38c <MATRIZ_EL>
     bf4:	fc 01       	movw	r30, r24
     bf6:	60 81       	ld	r22, Z
     bf8:	71 81       	ldd	r23, Z+1	; 0x01
     bfa:	82 81       	ldd	r24, Z+2	; 0x02
     bfc:	93 81       	ldd	r25, Z+3	; 0x03
     bfe:	e1 2e       	mov	r14, r17
     c00:	01 2f       	mov	r16, r17
     c02:	2b 81       	ldd	r18, Y+3	; 0x03
     c04:	3c 81       	ldd	r19, Y+4	; 0x04
     c06:	4d 81       	ldd	r20, Y+5	; 0x05
     c08:	5e 81       	ldd	r21, Y+6	; 0x06
     c0a:	0e 94 98 02 	call	0x530	; 0x530 <EL_SUM>
     c0e:	a9 81       	ldd	r26, Y+1	; 0x01
     c10:	ba 81       	ldd	r27, Y+2	; 0x02
     c12:	6d 93       	st	X+, r22
     c14:	7d 93       	st	X+, r23
     c16:	8d 93       	st	X+, r24
     c18:	9c 93       	st	X, r25
     c1a:	13 97       	sbiw	r26, 0x03	; 3
		int i,j,k;
		*matr = MATRIZ_CREATE(mat1->m,mat2->n,mat1->type == 'f' || mat2->type =='f'?'f':'i');
		for(i=0;i<(*matr)->m;i++)
		for(j=0;j<(*matr)->n;j++){
			MATRIZ_EL(*matr,i,j)->i=0;
			for(k=0;k<mat1->n;k++){
     c1c:	e8 85       	ldd	r30, Y+8	; 0x08
     c1e:	f9 85       	ldd	r31, Y+9	; 0x09
     c20:	31 96       	adiw	r30, 0x01	; 1
     c22:	f9 87       	std	Y+9, r31	; 0x09
     c24:	e8 87       	std	Y+8, r30	; 0x08
     c26:	d5 01       	movw	r26, r10
     c28:	14 96       	adiw	r26, 0x04	; 4
     c2a:	8d 91       	ld	r24, X+
     c2c:	9c 91       	ld	r25, X
     c2e:	15 97       	sbiw	r26, 0x05	; 5
     c30:	e8 17       	cp	r30, r24
     c32:	f9 07       	cpc	r31, r25
     c34:	0c f4       	brge	.+2      	; 0xc38 <MATRIZ_MUL+0x17c>
     c36:	a8 cf       	rjmp	.-176    	; 0xb88 <MATRIZ_MUL+0xcc>
	MATRIZ_FREE(matr);
	if(mat1 && mat2 && mat1->n == mat2->m){
		int i,j,k;
		*matr = MATRIZ_CREATE(mat1->m,mat2->n,mat1->type == 'f' || mat2->type =='f'?'f':'i');
		for(i=0;i<(*matr)->m;i++)
		for(j=0;j<(*matr)->n;j++){
     c38:	bf ef       	ldi	r27, 0xFF	; 255
     c3a:	2b 1a       	sub	r2, r27
     c3c:	3b 0a       	sbc	r3, r27
     c3e:	f4 01       	movw	r30, r8
     c40:	80 81       	ld	r24, Z
     c42:	91 81       	ldd	r25, Z+1	; 0x01
     c44:	dc 01       	movw	r26, r24
     c46:	14 96       	adiw	r26, 0x04	; 4
     c48:	2d 91       	ld	r18, X+
     c4a:	3c 91       	ld	r19, X
     c4c:	15 97       	sbiw	r26, 0x05	; 5
     c4e:	22 16       	cp	r2, r18
     c50:	33 06       	cpc	r3, r19
     c52:	0c f4       	brge	.+2      	; 0xc56 <MATRIZ_MUL+0x19a>
     c54:	85 cf       	rjmp	.-246    	; 0xb60 <MATRIZ_MUL+0xa4>
Matriz * MATRIZ_MUL(Matriz** matr, Matriz *mat1, Matriz *mat2){
	MATRIZ_FREE(matr);
	if(mat1 && mat2 && mat1->n == mat2->m){
		int i,j,k;
		*matr = MATRIZ_CREATE(mat1->m,mat2->n,mat1->type == 'f' || mat2->type =='f'?'f':'i');
		for(i=0;i<(*matr)->m;i++)
     c56:	bf ef       	ldi	r27, 0xFF	; 255
     c58:	6b 1a       	sub	r6, r27
     c5a:	7b 0a       	sbc	r7, r27
     c5c:	d4 01       	movw	r26, r8
     c5e:	ed 91       	ld	r30, X+
     c60:	fc 91       	ld	r31, X
     c62:	82 81       	ldd	r24, Z+2	; 0x02
     c64:	93 81       	ldd	r25, Z+3	; 0x03
     c66:	68 16       	cp	r6, r24
     c68:	79 06       	cpc	r7, r25
     c6a:	2c f0       	brlt	.+10     	; 0xc76 <MATRIZ_MUL+0x1ba>
     c6c:	11 c0       	rjmp	.+34     	; 0xc90 <MATRIZ_MUL+0x1d4>
     c6e:	61 2c       	mov	r6, r1
     c70:	71 2c       	mov	r7, r1
		for(j=0;j<(*matr)->n;j++){
			MATRIZ_EL(*matr,i,j)->i=0;
			for(k=0;k<mat1->n;k++){
     c72:	d1 2c       	mov	r13, r1
     c74:	1f 82       	std	Y+7, r1	; 0x07
	MATRIZ_FREE(matr);
	if(mat1 && mat2 && mat1->n == mat2->m){
		int i,j,k;
		*matr = MATRIZ_CREATE(mat1->m,mat2->n,mat1->type == 'f' || mat2->type =='f'?'f':'i');
		for(i=0;i<(*matr)->m;i++)
		for(j=0;j<(*matr)->n;j++){
     c76:	f4 01       	movw	r30, r8
     c78:	80 81       	ld	r24, Z
     c7a:	91 81       	ldd	r25, Z+1	; 0x01
     c7c:	dc 01       	movw	r26, r24
     c7e:	14 96       	adiw	r26, 0x04	; 4
     c80:	2d 91       	ld	r18, X+
     c82:	3c 91       	ld	r19, X
     c84:	15 97       	sbiw	r26, 0x05	; 5
     c86:	12 16       	cp	r1, r18
     c88:	13 06       	cpc	r1, r19
     c8a:	0c f4       	brge	.+2      	; 0xc8e <MATRIZ_MUL+0x1d2>
     c8c:	67 cf       	rjmp	.-306    	; 0xb5c <MATRIZ_MUL+0xa0>
     c8e:	e3 cf       	rjmp	.-58     	; 0xc56 <MATRIZ_MUL+0x19a>
				(*matr)->type, (*matr)->type,(*matr)->type);
			}
		}
	}
	return NULL;
}
     c90:	80 e0       	ldi	r24, 0x00	; 0
     c92:	90 e0       	ldi	r25, 0x00	; 0
     c94:	29 96       	adiw	r28, 0x09	; 9
     c96:	0f b6       	in	r0, 0x3f	; 63
     c98:	f8 94       	cli
     c9a:	de bf       	out	0x3e, r29	; 62
     c9c:	0f be       	out	0x3f, r0	; 63
     c9e:	cd bf       	out	0x3d, r28	; 61
     ca0:	df 91       	pop	r29
     ca2:	cf 91       	pop	r28
     ca4:	1f 91       	pop	r17
     ca6:	0f 91       	pop	r16
     ca8:	ff 90       	pop	r15
     caa:	ef 90       	pop	r14
     cac:	df 90       	pop	r13
     cae:	cf 90       	pop	r12
     cb0:	bf 90       	pop	r11
     cb2:	af 90       	pop	r10
     cb4:	9f 90       	pop	r9
     cb6:	8f 90       	pop	r8
     cb8:	7f 90       	pop	r7
     cba:	6f 90       	pop	r6
     cbc:	5f 90       	pop	r5
     cbe:	4f 90       	pop	r4
     cc0:	3f 90       	pop	r3
     cc2:	2f 90       	pop	r2
     cc4:	08 95       	ret

00000cc6 <MATRIZ_TRANS>:
Matriz * MATRIZ_TRANS(Matriz** matr, Matriz *mat){
     cc6:	8f 92       	push	r8
     cc8:	9f 92       	push	r9
     cca:	af 92       	push	r10
     ccc:	bf 92       	push	r11
     cce:	cf 92       	push	r12
     cd0:	df 92       	push	r13
     cd2:	ef 92       	push	r14
     cd4:	ff 92       	push	r15
     cd6:	0f 93       	push	r16
     cd8:	1f 93       	push	r17
     cda:	cf 93       	push	r28
     cdc:	df 93       	push	r29
     cde:	7c 01       	movw	r14, r24
     ce0:	6b 01       	movw	r12, r22
	int i,j;
	MATRIZ_FREE(matr);
     ce2:	0e 94 83 02 	call	0x506	; 0x506 <MATRIZ_FREE>
	if(mat){
     ce6:	c1 14       	cp	r12, r1
     ce8:	d1 04       	cpc	r13, r1
     cea:	09 f4       	brne	.+2      	; 0xcee <MATRIZ_TRANS+0x28>
     cec:	50 c0       	rjmp	.+160    	; 0xd8e <MATRIZ_TRANS+0xc8>
		*matr = MATRIZ_CREATE(mat->n,mat->m,mat->type);
     cee:	d6 01       	movw	r26, r12
     cf0:	12 96       	adiw	r26, 0x02	; 2
     cf2:	6d 91       	ld	r22, X+
     cf4:	7c 91       	ld	r23, X
     cf6:	13 97       	sbiw	r26, 0x03	; 3
     cf8:	16 96       	adiw	r26, 0x06	; 6
     cfa:	4c 91       	ld	r20, X
     cfc:	16 97       	sbiw	r26, 0x06	; 6
     cfe:	14 96       	adiw	r26, 0x04	; 4
     d00:	8d 91       	ld	r24, X+
     d02:	9c 91       	ld	r25, X
     d04:	15 97       	sbiw	r26, 0x05	; 5
     d06:	0e 94 88 01 	call	0x310	; 0x310 <MATRIZ_CREATE>
     d0a:	fc 01       	movw	r30, r24
     d0c:	d7 01       	movw	r26, r14
     d0e:	8d 93       	st	X+, r24
     d10:	9c 93       	st	X, r25
		for(i=0;i<(*matr)->m;i++)
     d12:	82 81       	ldd	r24, Z+2	; 0x02
     d14:	93 81       	ldd	r25, Z+3	; 0x03
     d16:	18 16       	cp	r1, r24
     d18:	19 06       	cpc	r1, r25
     d1a:	64 f1       	brlt	.+88     	; 0xd74 <MATRIZ_TRANS+0xae>
     d1c:	3a c0       	rjmp	.+116    	; 0xd92 <MATRIZ_TRANS+0xcc>
		for(j=0;j<(*matr)->n;j++)
     d1e:	c8 2d       	mov	r28, r8
     d20:	d9 2d       	mov	r29, r9
		*MATRIZ_EL(*matr,i,j) = *MATRIZ_EL(mat,j,i);
     d22:	ae 01       	movw	r20, r28
     d24:	b8 01       	movw	r22, r16
     d26:	cf 01       	movw	r24, r30
     d28:	0e 94 c6 01 	call	0x38c	; 0x38c <MATRIZ_EL>
     d2c:	5c 01       	movw	r10, r24
     d2e:	a8 01       	movw	r20, r16
     d30:	be 01       	movw	r22, r28
     d32:	c6 01       	movw	r24, r12
     d34:	0e 94 c6 01 	call	0x38c	; 0x38c <MATRIZ_EL>
     d38:	fc 01       	movw	r30, r24
     d3a:	80 81       	ld	r24, Z
     d3c:	91 81       	ldd	r25, Z+1	; 0x01
     d3e:	a2 81       	ldd	r26, Z+2	; 0x02
     d40:	b3 81       	ldd	r27, Z+3	; 0x03
     d42:	f5 01       	movw	r30, r10
     d44:	80 83       	st	Z, r24
     d46:	91 83       	std	Z+1, r25	; 0x01
     d48:	a2 83       	std	Z+2, r26	; 0x02
     d4a:	b3 83       	std	Z+3, r27	; 0x03
	int i,j;
	MATRIZ_FREE(matr);
	if(mat){
		*matr = MATRIZ_CREATE(mat->n,mat->m,mat->type);
		for(i=0;i<(*matr)->m;i++)
		for(j=0;j<(*matr)->n;j++)
     d4c:	21 96       	adiw	r28, 0x01	; 1
     d4e:	d7 01       	movw	r26, r14
     d50:	ed 91       	ld	r30, X+
     d52:	fc 91       	ld	r31, X
     d54:	84 81       	ldd	r24, Z+4	; 0x04
     d56:	95 81       	ldd	r25, Z+5	; 0x05
     d58:	c8 17       	cp	r28, r24
     d5a:	d9 07       	cpc	r29, r25
     d5c:	14 f3       	brlt	.-60     	; 0xd22 <MATRIZ_TRANS+0x5c>
Matriz * MATRIZ_TRANS(Matriz** matr, Matriz *mat){
	int i,j;
	MATRIZ_FREE(matr);
	if(mat){
		*matr = MATRIZ_CREATE(mat->n,mat->m,mat->type);
		for(i=0;i<(*matr)->m;i++)
     d5e:	0f 5f       	subi	r16, 0xFF	; 255
     d60:	1f 4f       	sbci	r17, 0xFF	; 255
     d62:	d7 01       	movw	r26, r14
     d64:	ed 91       	ld	r30, X+
     d66:	fc 91       	ld	r31, X
     d68:	82 81       	ldd	r24, Z+2	; 0x02
     d6a:	93 81       	ldd	r25, Z+3	; 0x03
     d6c:	08 17       	cp	r16, r24
     d6e:	19 07       	cpc	r17, r25
     d70:	2c f0       	brlt	.+10     	; 0xd7c <MATRIZ_TRANS+0xb6>
     d72:	0f c0       	rjmp	.+30     	; 0xd92 <MATRIZ_TRANS+0xcc>
     d74:	00 e0       	ldi	r16, 0x00	; 0
     d76:	10 e0       	ldi	r17, 0x00	; 0
		for(j=0;j<(*matr)->n;j++)
     d78:	81 2c       	mov	r8, r1
     d7a:	91 2c       	mov	r9, r1
     d7c:	d7 01       	movw	r26, r14
     d7e:	ed 91       	ld	r30, X+
     d80:	fc 91       	ld	r31, X
     d82:	84 81       	ldd	r24, Z+4	; 0x04
     d84:	95 81       	ldd	r25, Z+5	; 0x05
     d86:	18 16       	cp	r1, r24
     d88:	19 06       	cpc	r1, r25
     d8a:	4c f2       	brlt	.-110    	; 0xd1e <MATRIZ_TRANS+0x58>
     d8c:	e8 cf       	rjmp	.-48     	; 0xd5e <MATRIZ_TRANS+0x98>
		*MATRIZ_EL(*matr,i,j) = *MATRIZ_EL(mat,j,i);
		return *matr;
	}
	return NULL;
     d8e:	e0 e0       	ldi	r30, 0x00	; 0
     d90:	f0 e0       	ldi	r31, 0x00	; 0
}
     d92:	cf 01       	movw	r24, r30
     d94:	df 91       	pop	r29
     d96:	cf 91       	pop	r28
     d98:	1f 91       	pop	r17
     d9a:	0f 91       	pop	r16
     d9c:	ff 90       	pop	r15
     d9e:	ef 90       	pop	r14
     da0:	df 90       	pop	r13
     da2:	cf 90       	pop	r12
     da4:	bf 90       	pop	r11
     da6:	af 90       	pop	r10
     da8:	9f 90       	pop	r9
     daa:	8f 90       	pop	r8
     dac:	08 95       	ret

00000dae <main>:
#include "../../atmel_libs/usart.h"
#include "../../atmel_libs/matriz.h"


int main(void)
{
     dae:	cf 93       	push	r28
     db0:	df 93       	push	r29
     db2:	00 d0       	rcall	.+0      	; 0xdb4 <main+0x6>
     db4:	00 d0       	rcall	.+0      	; 0xdb6 <main+0x8>
     db6:	00 d0       	rcall	.+0      	; 0xdb8 <main+0xa>
     db8:	cd b7       	in	r28, 0x3d	; 61
     dba:	de b7       	in	r29, 0x3e	; 62
	USART_CONFIG();
     dbc:	0e 94 d4 00 	call	0x1a8	; 0x1a8 <USART_CONFIG>
	Matriz * mat = MATRIZ_CREATE(LINHA,COLUNA,'i');
     dc0:	49 e6       	ldi	r20, 0x69	; 105
     dc2:	64 e0       	ldi	r22, 0x04	; 4
     dc4:	70 e0       	ldi	r23, 0x00	; 0
     dc6:	84 e0       	ldi	r24, 0x04	; 4
     dc8:	90 e0       	ldi	r25, 0x00	; 0
     dca:	0e 94 88 01 	call	0x310	; 0x310 <MATRIZ_CREATE>
     dce:	9a 83       	std	Y+2, r25	; 0x02
     dd0:	89 83       	std	Y+1, r24	; 0x01
	Matriz * mat2 = MATRIZ_CREATE(COLUNA,LINHA,'f');
     dd2:	46 e6       	ldi	r20, 0x66	; 102
     dd4:	64 e0       	ldi	r22, 0x04	; 4
     dd6:	70 e0       	ldi	r23, 0x00	; 0
     dd8:	84 e0       	ldi	r24, 0x04	; 4
     dda:	90 e0       	ldi	r25, 0x00	; 0
     ddc:	0e 94 88 01 	call	0x310	; 0x310 <MATRIZ_CREATE>
     de0:	9c 83       	std	Y+4, r25	; 0x04
     de2:	8b 83       	std	Y+3, r24	; 0x03
	Matriz * mat3 = NULL;
     de4:	1e 82       	std	Y+6, r1	; 0x06
     de6:	1d 82       	std	Y+5, r1	; 0x05
	int i;
	ElType temp;
	temp.f = 3;
     de8:	c1 2c       	mov	r12, r1
     dea:	d1 2c       	mov	r13, r1
     dec:	76 01       	movw	r14, r12
     dee:	86 01       	movw	r16, r12
	for(i=0;i<LINHA*COLUNA;i++){
		MATRIZ_EL(mat,i/COLUNA,i%COLUNA)->i = i;
     df0:	c6 01       	movw	r24, r12
     df2:	83 70       	andi	r24, 0x03	; 3
     df4:	90 78       	andi	r25, 0x80	; 128
     df6:	99 23       	and	r25, r25
     df8:	24 f4       	brge	.+8      	; 0xe02 <main+0x54>
     dfa:	01 97       	sbiw	r24, 0x01	; 1
     dfc:	8c 6f       	ori	r24, 0xFC	; 252
     dfe:	9f 6f       	ori	r25, 0xFF	; 255
     e00:	01 96       	adiw	r24, 0x01	; 1
     e02:	a8 2e       	mov	r10, r24
     e04:	b9 2e       	mov	r11, r25
     e06:	c8 01       	movw	r24, r16
     e08:	11 23       	and	r17, r17
     e0a:	0c f4       	brge	.+2      	; 0xe0e <main+0x60>
     e0c:	03 96       	adiw	r24, 0x03	; 3
     e0e:	4c 01       	movw	r8, r24
     e10:	95 94       	asr	r9
     e12:	87 94       	ror	r8
     e14:	95 94       	asr	r9
     e16:	87 94       	ror	r8
     e18:	4a 2d       	mov	r20, r10
     e1a:	5b 2d       	mov	r21, r11
     e1c:	b4 01       	movw	r22, r8
     e1e:	89 81       	ldd	r24, Y+1	; 0x01
     e20:	9a 81       	ldd	r25, Y+2	; 0x02
     e22:	0e 94 c6 01 	call	0x38c	; 0x38c <MATRIZ_EL>
     e26:	fc 01       	movw	r30, r24
     e28:	c0 82       	st	Z, r12
     e2a:	d1 82       	std	Z+1, r13	; 0x01
     e2c:	e2 82       	std	Z+2, r14	; 0x02
     e2e:	f3 82       	std	Z+3, r15	; 0x03
		MATRIZ_EL(mat2,i%COLUNA,i/COLUNA)->f = i;
     e30:	a4 01       	movw	r20, r8
     e32:	6a 2d       	mov	r22, r10
     e34:	7b 2d       	mov	r23, r11
     e36:	8b 81       	ldd	r24, Y+3	; 0x03
     e38:	9c 81       	ldd	r25, Y+4	; 0x04
     e3a:	0e 94 c6 01 	call	0x38c	; 0x38c <MATRIZ_EL>
     e3e:	5c 01       	movw	r10, r24
     e40:	b8 01       	movw	r22, r16
     e42:	11 0f       	add	r17, r17
     e44:	88 0b       	sbc	r24, r24
     e46:	99 0b       	sbc	r25, r25
     e48:	0e 94 59 08 	call	0x10b2	; 0x10b2 <__floatsisf>
     e4c:	f5 01       	movw	r30, r10
     e4e:	60 83       	st	Z, r22
     e50:	71 83       	std	Z+1, r23	; 0x01
     e52:	82 83       	std	Z+2, r24	; 0x02
     e54:	93 83       	std	Z+3, r25	; 0x03
     e56:	ff ef       	ldi	r31, 0xFF	; 255
     e58:	cf 1a       	sub	r12, r31
     e5a:	df 0a       	sbc	r13, r31
     e5c:	ef 0a       	sbc	r14, r31
     e5e:	ff 0a       	sbc	r15, r31
	Matriz * mat2 = MATRIZ_CREATE(COLUNA,LINHA,'f');
	Matriz * mat3 = NULL;
	int i;
	ElType temp;
	temp.f = 3;
	for(i=0;i<LINHA*COLUNA;i++){
     e60:	80 e1       	ldi	r24, 0x10	; 16
     e62:	c8 16       	cp	r12, r24
     e64:	d1 04       	cpc	r13, r1
     e66:	e1 04       	cpc	r14, r1
     e68:	f1 04       	cpc	r15, r1
     e6a:	09 f6       	brne	.-126    	; 0xdee <main+0x40>
		MATRIZ_EL(mat,i/COLUNA,i%COLUNA)->i = i;
		MATRIZ_EL(mat2,i%COLUNA,i/COLUNA)->f = i;
	}
	MATRIZ_PRINT(mat);
     e6c:	89 81       	ldd	r24, Y+1	; 0x01
     e6e:	9a 81       	ldd	r25, Y+2	; 0x02
     e70:	0e 94 fc 01 	call	0x3f8	; 0x3f8 <MATRIZ_PRINT>
	USART_TRANSFER_STRING("\r\n");
     e74:	8e e2       	ldi	r24, 0x2E	; 46
     e76:	91 e0       	ldi	r25, 0x01	; 1
     e78:	0e 94 eb 00 	call	0x1d6	; 0x1d6 <USART_TRANSFER_STRING>
	
	MATRIZ_PRINT(mat2);
     e7c:	8b 81       	ldd	r24, Y+3	; 0x03
     e7e:	9c 81       	ldd	r25, Y+4	; 0x04
     e80:	0e 94 fc 01 	call	0x3f8	; 0x3f8 <MATRIZ_PRINT>
	USART_TRANSFER_STRING("\r\n");
     e84:	8e e2       	ldi	r24, 0x2E	; 46
     e86:	91 e0       	ldi	r25, 0x01	; 1
     e88:	0e 94 eb 00 	call	0x1d6	; 0x1d6 <USART_TRANSFER_STRING>
	
	MATRIZ_PRINT(mat3);
     e8c:	8d 81       	ldd	r24, Y+5	; 0x05
     e8e:	9e 81       	ldd	r25, Y+6	; 0x06
     e90:	0e 94 fc 01 	call	0x3f8	; 0x3f8 <MATRIZ_PRINT>
	USART_TRANSFER_STRING("\r\n");
     e94:	8e e2       	ldi	r24, 0x2E	; 46
     e96:	91 e0       	ldi	r25, 0x01	; 1
     e98:	0e 94 eb 00 	call	0x1d6	; 0x1d6 <USART_TRANSFER_STRING>
	
	MATRIZ_SUM(&mat3,mat,mat2);
     e9c:	4b 81       	ldd	r20, Y+3	; 0x03
     e9e:	5c 81       	ldd	r21, Y+4	; 0x04
     ea0:	69 81       	ldd	r22, Y+1	; 0x01
     ea2:	7a 81       	ldd	r23, Y+2	; 0x02
     ea4:	ce 01       	movw	r24, r28
     ea6:	05 96       	adiw	r24, 0x05	; 5
     ea8:	0e 94 fa 03 	call	0x7f4	; 0x7f4 <MATRIZ_SUM>
	MATRIZ_PRINT(mat3);
     eac:	8d 81       	ldd	r24, Y+5	; 0x05
     eae:	9e 81       	ldd	r25, Y+6	; 0x06
     eb0:	0e 94 fc 01 	call	0x3f8	; 0x3f8 <MATRIZ_PRINT>
	USART_TRANSFER_STRING("\r\n");
     eb4:	8e e2       	ldi	r24, 0x2E	; 46
     eb6:	91 e0       	ldi	r25, 0x01	; 1
     eb8:	0e 94 eb 00 	call	0x1d6	; 0x1d6 <USART_TRANSFER_STRING>
	
	MATRIZ_MUL_ESCAL(&mat3,mat,temp,'f');
     ebc:	69 81       	ldd	r22, Y+1	; 0x01
     ebe:	7a 81       	ldd	r23, Y+2	; 0x02
     ec0:	06 e6       	ldi	r16, 0x66	; 102
     ec2:	20 e0       	ldi	r18, 0x00	; 0
     ec4:	30 e0       	ldi	r19, 0x00	; 0
     ec6:	40 e4       	ldi	r20, 0x40	; 64
     ec8:	50 e4       	ldi	r21, 0x40	; 64
     eca:	ce 01       	movw	r24, r28
     ecc:	05 96       	adiw	r24, 0x05	; 5
     ece:	0e 94 b6 04 	call	0x96c	; 0x96c <MATRIZ_MUL_ESCAL>
	MATRIZ_PRINT(mat3);
     ed2:	8d 81       	ldd	r24, Y+5	; 0x05
     ed4:	9e 81       	ldd	r25, Y+6	; 0x06
     ed6:	0e 94 fc 01 	call	0x3f8	; 0x3f8 <MATRIZ_PRINT>
	USART_TRANSFER_STRING("\r\n");
     eda:	8e e2       	ldi	r24, 0x2E	; 46
     edc:	91 e0       	ldi	r25, 0x01	; 1
     ede:	0e 94 eb 00 	call	0x1d6	; 0x1d6 <USART_TRANSFER_STRING>
	
	MATRIZ_MUL(&mat3,mat,mat2);
     ee2:	4b 81       	ldd	r20, Y+3	; 0x03
     ee4:	5c 81       	ldd	r21, Y+4	; 0x04
     ee6:	69 81       	ldd	r22, Y+1	; 0x01
     ee8:	7a 81       	ldd	r23, Y+2	; 0x02
     eea:	ce 01       	movw	r24, r28
     eec:	05 96       	adiw	r24, 0x05	; 5
     eee:	0e 94 5e 05 	call	0xabc	; 0xabc <MATRIZ_MUL>
	MATRIZ_PRINT(mat3);
     ef2:	8d 81       	ldd	r24, Y+5	; 0x05
     ef4:	9e 81       	ldd	r25, Y+6	; 0x06
     ef6:	0e 94 fc 01 	call	0x3f8	; 0x3f8 <MATRIZ_PRINT>
	USART_TRANSFER_STRING("\r\n");
     efa:	8e e2       	ldi	r24, 0x2E	; 46
     efc:	91 e0       	ldi	r25, 0x01	; 1
     efe:	0e 94 eb 00 	call	0x1d6	; 0x1d6 <USART_TRANSFER_STRING>
	
	MATRIZ_TRANS(&mat3,mat2);
     f02:	6b 81       	ldd	r22, Y+3	; 0x03
     f04:	7c 81       	ldd	r23, Y+4	; 0x04
     f06:	ce 01       	movw	r24, r28
     f08:	05 96       	adiw	r24, 0x05	; 5
     f0a:	0e 94 63 06 	call	0xcc6	; 0xcc6 <MATRIZ_TRANS>
	MATRIZ_PRINT(mat3);
     f0e:	8d 81       	ldd	r24, Y+5	; 0x05
     f10:	9e 81       	ldd	r25, Y+6	; 0x06
     f12:	0e 94 fc 01 	call	0x3f8	; 0x3f8 <MATRIZ_PRINT>
	USART_TRANSFER_STRING("\r\n");
     f16:	8e e2       	ldi	r24, 0x2E	; 46
     f18:	91 e0       	ldi	r25, 0x01	; 1
     f1a:	0e 94 eb 00 	call	0x1d6	; 0x1d6 <USART_TRANSFER_STRING>
	
	MATRIZ_FREE(&mat);
     f1e:	ce 01       	movw	r24, r28
     f20:	01 96       	adiw	r24, 0x01	; 1
     f22:	0e 94 83 02 	call	0x506	; 0x506 <MATRIZ_FREE>
	MATRIZ_FREE(&mat2);
     f26:	ce 01       	movw	r24, r28
     f28:	03 96       	adiw	r24, 0x03	; 3
     f2a:	0e 94 83 02 	call	0x506	; 0x506 <MATRIZ_FREE>
	MATRIZ_FREE(&mat3);
     f2e:	ce 01       	movw	r24, r28
     f30:	05 96       	adiw	r24, 0x05	; 5
     f32:	0e 94 83 02 	call	0x506	; 0x506 <MATRIZ_FREE>
	
	MATRIZ_PRINT(mat);
     f36:	89 81       	ldd	r24, Y+1	; 0x01
     f38:	9a 81       	ldd	r25, Y+2	; 0x02
     f3a:	0e 94 fc 01 	call	0x3f8	; 0x3f8 <MATRIZ_PRINT>
	USART_TRANSFER_STRING("\r\n");
     f3e:	8e e2       	ldi	r24, 0x2E	; 46
     f40:	91 e0       	ldi	r25, 0x01	; 1
     f42:	0e 94 eb 00 	call	0x1d6	; 0x1d6 <USART_TRANSFER_STRING>
	
	MATRIZ_PRINT(mat2);
     f46:	8b 81       	ldd	r24, Y+3	; 0x03
     f48:	9c 81       	ldd	r25, Y+4	; 0x04
     f4a:	0e 94 fc 01 	call	0x3f8	; 0x3f8 <MATRIZ_PRINT>
	USART_TRANSFER_STRING("\r\n");
     f4e:	8e e2       	ldi	r24, 0x2E	; 46
     f50:	91 e0       	ldi	r25, 0x01	; 1
     f52:	0e 94 eb 00 	call	0x1d6	; 0x1d6 <USART_TRANSFER_STRING>
	
	MATRIZ_PRINT(mat3);
     f56:	8d 81       	ldd	r24, Y+5	; 0x05
     f58:	9e 81       	ldd	r25, Y+6	; 0x06
     f5a:	0e 94 fc 01 	call	0x3f8	; 0x3f8 <MATRIZ_PRINT>
	USART_TRANSFER_STRING("\r\n");
     f5e:	8e e2       	ldi	r24, 0x2E	; 46
     f60:	91 e0       	ldi	r25, 0x01	; 1
     f62:	0e 94 eb 00 	call	0x1d6	; 0x1d6 <USART_TRANSFER_STRING>
	
    while (1) 
    {
    }
     f66:	ff cf       	rjmp	.-2      	; 0xf66 <main+0x1b8>

00000f68 <__subsf3>:
     f68:	50 58       	subi	r21, 0x80	; 128

00000f6a <__addsf3>:
     f6a:	bb 27       	eor	r27, r27
     f6c:	aa 27       	eor	r26, r26
     f6e:	0e 94 cc 07 	call	0xf98	; 0xf98 <__addsf3x>
     f72:	0c 94 ab 08 	jmp	0x1156	; 0x1156 <__fp_round>
     f76:	0e 94 9d 08 	call	0x113a	; 0x113a <__fp_pscA>
     f7a:	38 f0       	brcs	.+14     	; 0xf8a <__addsf3+0x20>
     f7c:	0e 94 a4 08 	call	0x1148	; 0x1148 <__fp_pscB>
     f80:	20 f0       	brcs	.+8      	; 0xf8a <__addsf3+0x20>
     f82:	39 f4       	brne	.+14     	; 0xf92 <__addsf3+0x28>
     f84:	9f 3f       	cpi	r25, 0xFF	; 255
     f86:	19 f4       	brne	.+6      	; 0xf8e <__addsf3+0x24>
     f88:	26 f4       	brtc	.+8      	; 0xf92 <__addsf3+0x28>
     f8a:	0c 94 9a 08 	jmp	0x1134	; 0x1134 <__fp_nan>
     f8e:	0e f4       	brtc	.+2      	; 0xf92 <__addsf3+0x28>
     f90:	e0 95       	com	r30
     f92:	e7 fb       	bst	r30, 7
     f94:	0c 94 94 08 	jmp	0x1128	; 0x1128 <__fp_inf>

00000f98 <__addsf3x>:
     f98:	e9 2f       	mov	r30, r25
     f9a:	0e 94 bc 08 	call	0x1178	; 0x1178 <__fp_split3>
     f9e:	58 f3       	brcs	.-42     	; 0xf76 <__addsf3+0xc>
     fa0:	ba 17       	cp	r27, r26
     fa2:	62 07       	cpc	r22, r18
     fa4:	73 07       	cpc	r23, r19
     fa6:	84 07       	cpc	r24, r20
     fa8:	95 07       	cpc	r25, r21
     faa:	20 f0       	brcs	.+8      	; 0xfb4 <__addsf3x+0x1c>
     fac:	79 f4       	brne	.+30     	; 0xfcc <__addsf3x+0x34>
     fae:	a6 f5       	brtc	.+104    	; 0x1018 <__addsf3x+0x80>
     fb0:	0c 94 de 08 	jmp	0x11bc	; 0x11bc <__fp_zero>
     fb4:	0e f4       	brtc	.+2      	; 0xfb8 <__addsf3x+0x20>
     fb6:	e0 95       	com	r30
     fb8:	0b 2e       	mov	r0, r27
     fba:	ba 2f       	mov	r27, r26
     fbc:	a0 2d       	mov	r26, r0
     fbe:	0b 01       	movw	r0, r22
     fc0:	b9 01       	movw	r22, r18
     fc2:	90 01       	movw	r18, r0
     fc4:	0c 01       	movw	r0, r24
     fc6:	ca 01       	movw	r24, r20
     fc8:	a0 01       	movw	r20, r0
     fca:	11 24       	eor	r1, r1
     fcc:	ff 27       	eor	r31, r31
     fce:	59 1b       	sub	r21, r25
     fd0:	99 f0       	breq	.+38     	; 0xff8 <__addsf3x+0x60>
     fd2:	59 3f       	cpi	r21, 0xF9	; 249
     fd4:	50 f4       	brcc	.+20     	; 0xfea <__addsf3x+0x52>
     fd6:	50 3e       	cpi	r21, 0xE0	; 224
     fd8:	68 f1       	brcs	.+90     	; 0x1034 <__addsf3x+0x9c>
     fda:	1a 16       	cp	r1, r26
     fdc:	f0 40       	sbci	r31, 0x00	; 0
     fde:	a2 2f       	mov	r26, r18
     fe0:	23 2f       	mov	r18, r19
     fe2:	34 2f       	mov	r19, r20
     fe4:	44 27       	eor	r20, r20
     fe6:	58 5f       	subi	r21, 0xF8	; 248
     fe8:	f3 cf       	rjmp	.-26     	; 0xfd0 <__addsf3x+0x38>
     fea:	46 95       	lsr	r20
     fec:	37 95       	ror	r19
     fee:	27 95       	ror	r18
     ff0:	a7 95       	ror	r26
     ff2:	f0 40       	sbci	r31, 0x00	; 0
     ff4:	53 95       	inc	r21
     ff6:	c9 f7       	brne	.-14     	; 0xfea <__addsf3x+0x52>
     ff8:	7e f4       	brtc	.+30     	; 0x1018 <__addsf3x+0x80>
     ffa:	1f 16       	cp	r1, r31
     ffc:	ba 0b       	sbc	r27, r26
     ffe:	62 0b       	sbc	r22, r18
    1000:	73 0b       	sbc	r23, r19
    1002:	84 0b       	sbc	r24, r20
    1004:	ba f0       	brmi	.+46     	; 0x1034 <__addsf3x+0x9c>
    1006:	91 50       	subi	r25, 0x01	; 1
    1008:	a1 f0       	breq	.+40     	; 0x1032 <__addsf3x+0x9a>
    100a:	ff 0f       	add	r31, r31
    100c:	bb 1f       	adc	r27, r27
    100e:	66 1f       	adc	r22, r22
    1010:	77 1f       	adc	r23, r23
    1012:	88 1f       	adc	r24, r24
    1014:	c2 f7       	brpl	.-16     	; 0x1006 <__addsf3x+0x6e>
    1016:	0e c0       	rjmp	.+28     	; 0x1034 <__addsf3x+0x9c>
    1018:	ba 0f       	add	r27, r26
    101a:	62 1f       	adc	r22, r18
    101c:	73 1f       	adc	r23, r19
    101e:	84 1f       	adc	r24, r20
    1020:	48 f4       	brcc	.+18     	; 0x1034 <__addsf3x+0x9c>
    1022:	87 95       	ror	r24
    1024:	77 95       	ror	r23
    1026:	67 95       	ror	r22
    1028:	b7 95       	ror	r27
    102a:	f7 95       	ror	r31
    102c:	9e 3f       	cpi	r25, 0xFE	; 254
    102e:	08 f0       	brcs	.+2      	; 0x1032 <__addsf3x+0x9a>
    1030:	b0 cf       	rjmp	.-160    	; 0xf92 <__addsf3+0x28>
    1032:	93 95       	inc	r25
    1034:	88 0f       	add	r24, r24
    1036:	08 f0       	brcs	.+2      	; 0x103a <__addsf3x+0xa2>
    1038:	99 27       	eor	r25, r25
    103a:	ee 0f       	add	r30, r30
    103c:	97 95       	ror	r25
    103e:	87 95       	ror	r24
    1040:	08 95       	ret

00001042 <__fixsfsi>:
    1042:	0e 94 28 08 	call	0x1050	; 0x1050 <__fixunssfsi>
    1046:	68 94       	set
    1048:	b1 11       	cpse	r27, r1
    104a:	0c 94 df 08 	jmp	0x11be	; 0x11be <__fp_szero>
    104e:	08 95       	ret

00001050 <__fixunssfsi>:
    1050:	0e 94 c4 08 	call	0x1188	; 0x1188 <__fp_splitA>
    1054:	88 f0       	brcs	.+34     	; 0x1078 <__fixunssfsi+0x28>
    1056:	9f 57       	subi	r25, 0x7F	; 127
    1058:	98 f0       	brcs	.+38     	; 0x1080 <__fixunssfsi+0x30>
    105a:	b9 2f       	mov	r27, r25
    105c:	99 27       	eor	r25, r25
    105e:	b7 51       	subi	r27, 0x17	; 23
    1060:	b0 f0       	brcs	.+44     	; 0x108e <__fixunssfsi+0x3e>
    1062:	e1 f0       	breq	.+56     	; 0x109c <__fixunssfsi+0x4c>
    1064:	66 0f       	add	r22, r22
    1066:	77 1f       	adc	r23, r23
    1068:	88 1f       	adc	r24, r24
    106a:	99 1f       	adc	r25, r25
    106c:	1a f0       	brmi	.+6      	; 0x1074 <__fixunssfsi+0x24>
    106e:	ba 95       	dec	r27
    1070:	c9 f7       	brne	.-14     	; 0x1064 <__fixunssfsi+0x14>
    1072:	14 c0       	rjmp	.+40     	; 0x109c <__fixunssfsi+0x4c>
    1074:	b1 30       	cpi	r27, 0x01	; 1
    1076:	91 f0       	breq	.+36     	; 0x109c <__fixunssfsi+0x4c>
    1078:	0e 94 de 08 	call	0x11bc	; 0x11bc <__fp_zero>
    107c:	b1 e0       	ldi	r27, 0x01	; 1
    107e:	08 95       	ret
    1080:	0c 94 de 08 	jmp	0x11bc	; 0x11bc <__fp_zero>
    1084:	67 2f       	mov	r22, r23
    1086:	78 2f       	mov	r23, r24
    1088:	88 27       	eor	r24, r24
    108a:	b8 5f       	subi	r27, 0xF8	; 248
    108c:	39 f0       	breq	.+14     	; 0x109c <__fixunssfsi+0x4c>
    108e:	b9 3f       	cpi	r27, 0xF9	; 249
    1090:	cc f3       	brlt	.-14     	; 0x1084 <__fixunssfsi+0x34>
    1092:	86 95       	lsr	r24
    1094:	77 95       	ror	r23
    1096:	67 95       	ror	r22
    1098:	b3 95       	inc	r27
    109a:	d9 f7       	brne	.-10     	; 0x1092 <__fixunssfsi+0x42>
    109c:	3e f4       	brtc	.+14     	; 0x10ac <__fixunssfsi+0x5c>
    109e:	90 95       	com	r25
    10a0:	80 95       	com	r24
    10a2:	70 95       	com	r23
    10a4:	61 95       	neg	r22
    10a6:	7f 4f       	sbci	r23, 0xFF	; 255
    10a8:	8f 4f       	sbci	r24, 0xFF	; 255
    10aa:	9f 4f       	sbci	r25, 0xFF	; 255
    10ac:	08 95       	ret

000010ae <__floatunsisf>:
    10ae:	e8 94       	clt
    10b0:	09 c0       	rjmp	.+18     	; 0x10c4 <__floatsisf+0x12>

000010b2 <__floatsisf>:
    10b2:	97 fb       	bst	r25, 7
    10b4:	3e f4       	brtc	.+14     	; 0x10c4 <__floatsisf+0x12>
    10b6:	90 95       	com	r25
    10b8:	80 95       	com	r24
    10ba:	70 95       	com	r23
    10bc:	61 95       	neg	r22
    10be:	7f 4f       	sbci	r23, 0xFF	; 255
    10c0:	8f 4f       	sbci	r24, 0xFF	; 255
    10c2:	9f 4f       	sbci	r25, 0xFF	; 255
    10c4:	99 23       	and	r25, r25
    10c6:	a9 f0       	breq	.+42     	; 0x10f2 <__floatsisf+0x40>
    10c8:	f9 2f       	mov	r31, r25
    10ca:	96 e9       	ldi	r25, 0x96	; 150
    10cc:	bb 27       	eor	r27, r27
    10ce:	93 95       	inc	r25
    10d0:	f6 95       	lsr	r31
    10d2:	87 95       	ror	r24
    10d4:	77 95       	ror	r23
    10d6:	67 95       	ror	r22
    10d8:	b7 95       	ror	r27
    10da:	f1 11       	cpse	r31, r1
    10dc:	f8 cf       	rjmp	.-16     	; 0x10ce <__floatsisf+0x1c>
    10de:	fa f4       	brpl	.+62     	; 0x111e <__floatsisf+0x6c>
    10e0:	bb 0f       	add	r27, r27
    10e2:	11 f4       	brne	.+4      	; 0x10e8 <__floatsisf+0x36>
    10e4:	60 ff       	sbrs	r22, 0
    10e6:	1b c0       	rjmp	.+54     	; 0x111e <__floatsisf+0x6c>
    10e8:	6f 5f       	subi	r22, 0xFF	; 255
    10ea:	7f 4f       	sbci	r23, 0xFF	; 255
    10ec:	8f 4f       	sbci	r24, 0xFF	; 255
    10ee:	9f 4f       	sbci	r25, 0xFF	; 255
    10f0:	16 c0       	rjmp	.+44     	; 0x111e <__floatsisf+0x6c>
    10f2:	88 23       	and	r24, r24
    10f4:	11 f0       	breq	.+4      	; 0x10fa <__floatsisf+0x48>
    10f6:	96 e9       	ldi	r25, 0x96	; 150
    10f8:	11 c0       	rjmp	.+34     	; 0x111c <__floatsisf+0x6a>
    10fa:	77 23       	and	r23, r23
    10fc:	21 f0       	breq	.+8      	; 0x1106 <__floatsisf+0x54>
    10fe:	9e e8       	ldi	r25, 0x8E	; 142
    1100:	87 2f       	mov	r24, r23
    1102:	76 2f       	mov	r23, r22
    1104:	05 c0       	rjmp	.+10     	; 0x1110 <__floatsisf+0x5e>
    1106:	66 23       	and	r22, r22
    1108:	71 f0       	breq	.+28     	; 0x1126 <__floatsisf+0x74>
    110a:	96 e8       	ldi	r25, 0x86	; 134
    110c:	86 2f       	mov	r24, r22
    110e:	70 e0       	ldi	r23, 0x00	; 0
    1110:	60 e0       	ldi	r22, 0x00	; 0
    1112:	2a f0       	brmi	.+10     	; 0x111e <__floatsisf+0x6c>
    1114:	9a 95       	dec	r25
    1116:	66 0f       	add	r22, r22
    1118:	77 1f       	adc	r23, r23
    111a:	88 1f       	adc	r24, r24
    111c:	da f7       	brpl	.-10     	; 0x1114 <__floatsisf+0x62>
    111e:	88 0f       	add	r24, r24
    1120:	96 95       	lsr	r25
    1122:	87 95       	ror	r24
    1124:	97 f9       	bld	r25, 7
    1126:	08 95       	ret

00001128 <__fp_inf>:
    1128:	97 f9       	bld	r25, 7
    112a:	9f 67       	ori	r25, 0x7F	; 127
    112c:	80 e8       	ldi	r24, 0x80	; 128
    112e:	70 e0       	ldi	r23, 0x00	; 0
    1130:	60 e0       	ldi	r22, 0x00	; 0
    1132:	08 95       	ret

00001134 <__fp_nan>:
    1134:	9f ef       	ldi	r25, 0xFF	; 255
    1136:	80 ec       	ldi	r24, 0xC0	; 192
    1138:	08 95       	ret

0000113a <__fp_pscA>:
    113a:	00 24       	eor	r0, r0
    113c:	0a 94       	dec	r0
    113e:	16 16       	cp	r1, r22
    1140:	17 06       	cpc	r1, r23
    1142:	18 06       	cpc	r1, r24
    1144:	09 06       	cpc	r0, r25
    1146:	08 95       	ret

00001148 <__fp_pscB>:
    1148:	00 24       	eor	r0, r0
    114a:	0a 94       	dec	r0
    114c:	12 16       	cp	r1, r18
    114e:	13 06       	cpc	r1, r19
    1150:	14 06       	cpc	r1, r20
    1152:	05 06       	cpc	r0, r21
    1154:	08 95       	ret

00001156 <__fp_round>:
    1156:	09 2e       	mov	r0, r25
    1158:	03 94       	inc	r0
    115a:	00 0c       	add	r0, r0
    115c:	11 f4       	brne	.+4      	; 0x1162 <__fp_round+0xc>
    115e:	88 23       	and	r24, r24
    1160:	52 f0       	brmi	.+20     	; 0x1176 <__fp_round+0x20>
    1162:	bb 0f       	add	r27, r27
    1164:	40 f4       	brcc	.+16     	; 0x1176 <__fp_round+0x20>
    1166:	bf 2b       	or	r27, r31
    1168:	11 f4       	brne	.+4      	; 0x116e <__fp_round+0x18>
    116a:	60 ff       	sbrs	r22, 0
    116c:	04 c0       	rjmp	.+8      	; 0x1176 <__fp_round+0x20>
    116e:	6f 5f       	subi	r22, 0xFF	; 255
    1170:	7f 4f       	sbci	r23, 0xFF	; 255
    1172:	8f 4f       	sbci	r24, 0xFF	; 255
    1174:	9f 4f       	sbci	r25, 0xFF	; 255
    1176:	08 95       	ret

00001178 <__fp_split3>:
    1178:	57 fd       	sbrc	r21, 7
    117a:	90 58       	subi	r25, 0x80	; 128
    117c:	44 0f       	add	r20, r20
    117e:	55 1f       	adc	r21, r21
    1180:	59 f0       	breq	.+22     	; 0x1198 <__fp_splitA+0x10>
    1182:	5f 3f       	cpi	r21, 0xFF	; 255
    1184:	71 f0       	breq	.+28     	; 0x11a2 <__fp_splitA+0x1a>
    1186:	47 95       	ror	r20

00001188 <__fp_splitA>:
    1188:	88 0f       	add	r24, r24
    118a:	97 fb       	bst	r25, 7
    118c:	99 1f       	adc	r25, r25
    118e:	61 f0       	breq	.+24     	; 0x11a8 <__fp_splitA+0x20>
    1190:	9f 3f       	cpi	r25, 0xFF	; 255
    1192:	79 f0       	breq	.+30     	; 0x11b2 <__fp_splitA+0x2a>
    1194:	87 95       	ror	r24
    1196:	08 95       	ret
    1198:	12 16       	cp	r1, r18
    119a:	13 06       	cpc	r1, r19
    119c:	14 06       	cpc	r1, r20
    119e:	55 1f       	adc	r21, r21
    11a0:	f2 cf       	rjmp	.-28     	; 0x1186 <__fp_split3+0xe>
    11a2:	46 95       	lsr	r20
    11a4:	f1 df       	rcall	.-30     	; 0x1188 <__fp_splitA>
    11a6:	08 c0       	rjmp	.+16     	; 0x11b8 <__fp_splitA+0x30>
    11a8:	16 16       	cp	r1, r22
    11aa:	17 06       	cpc	r1, r23
    11ac:	18 06       	cpc	r1, r24
    11ae:	99 1f       	adc	r25, r25
    11b0:	f1 cf       	rjmp	.-30     	; 0x1194 <__fp_splitA+0xc>
    11b2:	86 95       	lsr	r24
    11b4:	71 05       	cpc	r23, r1
    11b6:	61 05       	cpc	r22, r1
    11b8:	08 94       	sec
    11ba:	08 95       	ret

000011bc <__fp_zero>:
    11bc:	e8 94       	clt

000011be <__fp_szero>:
    11be:	bb 27       	eor	r27, r27
    11c0:	66 27       	eor	r22, r22
    11c2:	77 27       	eor	r23, r23
    11c4:	cb 01       	movw	r24, r22
    11c6:	97 f9       	bld	r25, 7
    11c8:	08 95       	ret

000011ca <__mulsf3>:
    11ca:	0e 94 f8 08 	call	0x11f0	; 0x11f0 <__mulsf3x>
    11ce:	0c 94 ab 08 	jmp	0x1156	; 0x1156 <__fp_round>
    11d2:	0e 94 9d 08 	call	0x113a	; 0x113a <__fp_pscA>
    11d6:	38 f0       	brcs	.+14     	; 0x11e6 <__mulsf3+0x1c>
    11d8:	0e 94 a4 08 	call	0x1148	; 0x1148 <__fp_pscB>
    11dc:	20 f0       	brcs	.+8      	; 0x11e6 <__mulsf3+0x1c>
    11de:	95 23       	and	r25, r21
    11e0:	11 f0       	breq	.+4      	; 0x11e6 <__mulsf3+0x1c>
    11e2:	0c 94 94 08 	jmp	0x1128	; 0x1128 <__fp_inf>
    11e6:	0c 94 9a 08 	jmp	0x1134	; 0x1134 <__fp_nan>
    11ea:	11 24       	eor	r1, r1
    11ec:	0c 94 df 08 	jmp	0x11be	; 0x11be <__fp_szero>

000011f0 <__mulsf3x>:
    11f0:	0e 94 bc 08 	call	0x1178	; 0x1178 <__fp_split3>
    11f4:	70 f3       	brcs	.-36     	; 0x11d2 <__mulsf3+0x8>

000011f6 <__mulsf3_pse>:
    11f6:	95 9f       	mul	r25, r21
    11f8:	c1 f3       	breq	.-16     	; 0x11ea <__mulsf3+0x20>
    11fa:	95 0f       	add	r25, r21
    11fc:	50 e0       	ldi	r21, 0x00	; 0
    11fe:	55 1f       	adc	r21, r21
    1200:	62 9f       	mul	r22, r18
    1202:	f0 01       	movw	r30, r0
    1204:	72 9f       	mul	r23, r18
    1206:	bb 27       	eor	r27, r27
    1208:	f0 0d       	add	r31, r0
    120a:	b1 1d       	adc	r27, r1
    120c:	63 9f       	mul	r22, r19
    120e:	aa 27       	eor	r26, r26
    1210:	f0 0d       	add	r31, r0
    1212:	b1 1d       	adc	r27, r1
    1214:	aa 1f       	adc	r26, r26
    1216:	64 9f       	mul	r22, r20
    1218:	66 27       	eor	r22, r22
    121a:	b0 0d       	add	r27, r0
    121c:	a1 1d       	adc	r26, r1
    121e:	66 1f       	adc	r22, r22
    1220:	82 9f       	mul	r24, r18
    1222:	22 27       	eor	r18, r18
    1224:	b0 0d       	add	r27, r0
    1226:	a1 1d       	adc	r26, r1
    1228:	62 1f       	adc	r22, r18
    122a:	73 9f       	mul	r23, r19
    122c:	b0 0d       	add	r27, r0
    122e:	a1 1d       	adc	r26, r1
    1230:	62 1f       	adc	r22, r18
    1232:	83 9f       	mul	r24, r19
    1234:	a0 0d       	add	r26, r0
    1236:	61 1d       	adc	r22, r1
    1238:	22 1f       	adc	r18, r18
    123a:	74 9f       	mul	r23, r20
    123c:	33 27       	eor	r19, r19
    123e:	a0 0d       	add	r26, r0
    1240:	61 1d       	adc	r22, r1
    1242:	23 1f       	adc	r18, r19
    1244:	84 9f       	mul	r24, r20
    1246:	60 0d       	add	r22, r0
    1248:	21 1d       	adc	r18, r1
    124a:	82 2f       	mov	r24, r18
    124c:	76 2f       	mov	r23, r22
    124e:	6a 2f       	mov	r22, r26
    1250:	11 24       	eor	r1, r1
    1252:	9f 57       	subi	r25, 0x7F	; 127
    1254:	50 40       	sbci	r21, 0x00	; 0
    1256:	9a f0       	brmi	.+38     	; 0x127e <__mulsf3_pse+0x88>
    1258:	f1 f0       	breq	.+60     	; 0x1296 <__mulsf3_pse+0xa0>
    125a:	88 23       	and	r24, r24
    125c:	4a f0       	brmi	.+18     	; 0x1270 <__mulsf3_pse+0x7a>
    125e:	ee 0f       	add	r30, r30
    1260:	ff 1f       	adc	r31, r31
    1262:	bb 1f       	adc	r27, r27
    1264:	66 1f       	adc	r22, r22
    1266:	77 1f       	adc	r23, r23
    1268:	88 1f       	adc	r24, r24
    126a:	91 50       	subi	r25, 0x01	; 1
    126c:	50 40       	sbci	r21, 0x00	; 0
    126e:	a9 f7       	brne	.-22     	; 0x125a <__mulsf3_pse+0x64>
    1270:	9e 3f       	cpi	r25, 0xFE	; 254
    1272:	51 05       	cpc	r21, r1
    1274:	80 f0       	brcs	.+32     	; 0x1296 <__mulsf3_pse+0xa0>
    1276:	0c 94 94 08 	jmp	0x1128	; 0x1128 <__fp_inf>
    127a:	0c 94 df 08 	jmp	0x11be	; 0x11be <__fp_szero>
    127e:	5f 3f       	cpi	r21, 0xFF	; 255
    1280:	e4 f3       	brlt	.-8      	; 0x127a <__mulsf3_pse+0x84>
    1282:	98 3e       	cpi	r25, 0xE8	; 232
    1284:	d4 f3       	brlt	.-12     	; 0x127a <__mulsf3_pse+0x84>
    1286:	86 95       	lsr	r24
    1288:	77 95       	ror	r23
    128a:	67 95       	ror	r22
    128c:	b7 95       	ror	r27
    128e:	f7 95       	ror	r31
    1290:	e7 95       	ror	r30
    1292:	9f 5f       	subi	r25, 0xFF	; 255
    1294:	c1 f7       	brne	.-16     	; 0x1286 <__mulsf3_pse+0x90>
    1296:	fe 2b       	or	r31, r30
    1298:	88 0f       	add	r24, r24
    129a:	91 1d       	adc	r25, r1
    129c:	96 95       	lsr	r25
    129e:	87 95       	ror	r24
    12a0:	97 f9       	bld	r25, 7
    12a2:	08 95       	ret

000012a4 <vfprintf>:
    12a4:	a3 e1       	ldi	r26, 0x13	; 19
    12a6:	b0 e0       	ldi	r27, 0x00	; 0
    12a8:	e8 e5       	ldi	r30, 0x58	; 88
    12aa:	f9 e0       	ldi	r31, 0x09	; 9
    12ac:	0c 94 10 0d 	jmp	0x1a20	; 0x1a20 <__prologue_saves__>
    12b0:	6c 01       	movw	r12, r24
    12b2:	4b 01       	movw	r8, r22
    12b4:	2a 01       	movw	r4, r20
    12b6:	fc 01       	movw	r30, r24
    12b8:	17 82       	std	Z+7, r1	; 0x07
    12ba:	16 82       	std	Z+6, r1	; 0x06
    12bc:	83 81       	ldd	r24, Z+3	; 0x03
    12be:	81 ff       	sbrs	r24, 1
    12c0:	43 c3       	rjmp	.+1670   	; 0x1948 <vfprintf+0x6a4>
    12c2:	ae 01       	movw	r20, r28
    12c4:	4f 5f       	subi	r20, 0xFF	; 255
    12c6:	5f 4f       	sbci	r21, 0xFF	; 255
    12c8:	3a 01       	movw	r6, r20
    12ca:	f6 01       	movw	r30, r12
    12cc:	93 81       	ldd	r25, Z+3	; 0x03
    12ce:	f4 01       	movw	r30, r8
    12d0:	93 fd       	sbrc	r25, 3
    12d2:	85 91       	lpm	r24, Z+
    12d4:	93 ff       	sbrs	r25, 3
    12d6:	81 91       	ld	r24, Z+
    12d8:	4f 01       	movw	r8, r30
    12da:	88 23       	and	r24, r24
    12dc:	09 f4       	brne	.+2      	; 0x12e0 <vfprintf+0x3c>
    12de:	30 c3       	rjmp	.+1632   	; 0x1940 <vfprintf+0x69c>
    12e0:	85 32       	cpi	r24, 0x25	; 37
    12e2:	39 f4       	brne	.+14     	; 0x12f2 <vfprintf+0x4e>
    12e4:	93 fd       	sbrc	r25, 3
    12e6:	85 91       	lpm	r24, Z+
    12e8:	93 ff       	sbrs	r25, 3
    12ea:	81 91       	ld	r24, Z+
    12ec:	4f 01       	movw	r8, r30
    12ee:	85 32       	cpi	r24, 0x25	; 37
    12f0:	39 f4       	brne	.+14     	; 0x1300 <vfprintf+0x5c>
    12f2:	b6 01       	movw	r22, r12
    12f4:	90 e0       	ldi	r25, 0x00	; 0
    12f6:	0e 94 b6 0f 	call	0x1f6c	; 0x1f6c <fputc>
    12fa:	52 01       	movw	r10, r4
    12fc:	25 01       	movw	r4, r10
    12fe:	e5 cf       	rjmp	.-54     	; 0x12ca <vfprintf+0x26>
    1300:	10 e0       	ldi	r17, 0x00	; 0
    1302:	f1 2c       	mov	r15, r1
    1304:	20 e0       	ldi	r18, 0x00	; 0
    1306:	20 32       	cpi	r18, 0x20	; 32
    1308:	a0 f4       	brcc	.+40     	; 0x1332 <vfprintf+0x8e>
    130a:	8b 32       	cpi	r24, 0x2B	; 43
    130c:	69 f0       	breq	.+26     	; 0x1328 <vfprintf+0x84>
    130e:	30 f4       	brcc	.+12     	; 0x131c <vfprintf+0x78>
    1310:	80 32       	cpi	r24, 0x20	; 32
    1312:	59 f0       	breq	.+22     	; 0x132a <vfprintf+0x86>
    1314:	83 32       	cpi	r24, 0x23	; 35
    1316:	69 f4       	brne	.+26     	; 0x1332 <vfprintf+0x8e>
    1318:	20 61       	ori	r18, 0x10	; 16
    131a:	2c c0       	rjmp	.+88     	; 0x1374 <vfprintf+0xd0>
    131c:	8d 32       	cpi	r24, 0x2D	; 45
    131e:	39 f0       	breq	.+14     	; 0x132e <vfprintf+0x8a>
    1320:	80 33       	cpi	r24, 0x30	; 48
    1322:	39 f4       	brne	.+14     	; 0x1332 <vfprintf+0x8e>
    1324:	21 60       	ori	r18, 0x01	; 1
    1326:	26 c0       	rjmp	.+76     	; 0x1374 <vfprintf+0xd0>
    1328:	22 60       	ori	r18, 0x02	; 2
    132a:	24 60       	ori	r18, 0x04	; 4
    132c:	23 c0       	rjmp	.+70     	; 0x1374 <vfprintf+0xd0>
    132e:	28 60       	ori	r18, 0x08	; 8
    1330:	21 c0       	rjmp	.+66     	; 0x1374 <vfprintf+0xd0>
    1332:	27 fd       	sbrc	r18, 7
    1334:	27 c0       	rjmp	.+78     	; 0x1384 <vfprintf+0xe0>
    1336:	30 ed       	ldi	r19, 0xD0	; 208
    1338:	38 0f       	add	r19, r24
    133a:	3a 30       	cpi	r19, 0x0A	; 10
    133c:	78 f4       	brcc	.+30     	; 0x135c <vfprintf+0xb8>
    133e:	26 ff       	sbrs	r18, 6
    1340:	06 c0       	rjmp	.+12     	; 0x134e <vfprintf+0xaa>
    1342:	fa e0       	ldi	r31, 0x0A	; 10
    1344:	1f 9f       	mul	r17, r31
    1346:	30 0d       	add	r19, r0
    1348:	11 24       	eor	r1, r1
    134a:	13 2f       	mov	r17, r19
    134c:	13 c0       	rjmp	.+38     	; 0x1374 <vfprintf+0xd0>
    134e:	4a e0       	ldi	r20, 0x0A	; 10
    1350:	f4 9e       	mul	r15, r20
    1352:	30 0d       	add	r19, r0
    1354:	11 24       	eor	r1, r1
    1356:	f3 2e       	mov	r15, r19
    1358:	20 62       	ori	r18, 0x20	; 32
    135a:	0c c0       	rjmp	.+24     	; 0x1374 <vfprintf+0xd0>
    135c:	8e 32       	cpi	r24, 0x2E	; 46
    135e:	21 f4       	brne	.+8      	; 0x1368 <vfprintf+0xc4>
    1360:	26 fd       	sbrc	r18, 6
    1362:	ee c2       	rjmp	.+1500   	; 0x1940 <vfprintf+0x69c>
    1364:	20 64       	ori	r18, 0x40	; 64
    1366:	06 c0       	rjmp	.+12     	; 0x1374 <vfprintf+0xd0>
    1368:	8c 36       	cpi	r24, 0x6C	; 108
    136a:	11 f4       	brne	.+4      	; 0x1370 <vfprintf+0xcc>
    136c:	20 68       	ori	r18, 0x80	; 128
    136e:	02 c0       	rjmp	.+4      	; 0x1374 <vfprintf+0xd0>
    1370:	88 36       	cpi	r24, 0x68	; 104
    1372:	41 f4       	brne	.+16     	; 0x1384 <vfprintf+0xe0>
    1374:	f4 01       	movw	r30, r8
    1376:	93 fd       	sbrc	r25, 3
    1378:	85 91       	lpm	r24, Z+
    137a:	93 ff       	sbrs	r25, 3
    137c:	81 91       	ld	r24, Z+
    137e:	4f 01       	movw	r8, r30
    1380:	81 11       	cpse	r24, r1
    1382:	c1 cf       	rjmp	.-126    	; 0x1306 <vfprintf+0x62>
    1384:	9b eb       	ldi	r25, 0xBB	; 187
    1386:	98 0f       	add	r25, r24
    1388:	93 30       	cpi	r25, 0x03	; 3
    138a:	18 f4       	brcc	.+6      	; 0x1392 <vfprintf+0xee>
    138c:	20 61       	ori	r18, 0x10	; 16
    138e:	80 5e       	subi	r24, 0xE0	; 224
    1390:	06 c0       	rjmp	.+12     	; 0x139e <vfprintf+0xfa>
    1392:	9b e9       	ldi	r25, 0x9B	; 155
    1394:	98 0f       	add	r25, r24
    1396:	93 30       	cpi	r25, 0x03	; 3
    1398:	08 f0       	brcs	.+2      	; 0x139c <vfprintf+0xf8>
    139a:	71 c1       	rjmp	.+738    	; 0x167e <vfprintf+0x3da>
    139c:	2f 7e       	andi	r18, 0xEF	; 239
    139e:	26 ff       	sbrs	r18, 6
    13a0:	16 e0       	ldi	r17, 0x06	; 6
    13a2:	2f 73       	andi	r18, 0x3F	; 63
    13a4:	32 2e       	mov	r3, r18
    13a6:	85 36       	cpi	r24, 0x65	; 101
    13a8:	19 f4       	brne	.+6      	; 0x13b0 <vfprintf+0x10c>
    13aa:	20 64       	ori	r18, 0x40	; 64
    13ac:	32 2e       	mov	r3, r18
    13ae:	08 c0       	rjmp	.+16     	; 0x13c0 <vfprintf+0x11c>
    13b0:	86 36       	cpi	r24, 0x66	; 102
    13b2:	21 f4       	brne	.+8      	; 0x13bc <vfprintf+0x118>
    13b4:	f2 2f       	mov	r31, r18
    13b6:	f0 68       	ori	r31, 0x80	; 128
    13b8:	3f 2e       	mov	r3, r31
    13ba:	02 c0       	rjmp	.+4      	; 0x13c0 <vfprintf+0x11c>
    13bc:	11 11       	cpse	r17, r1
    13be:	11 50       	subi	r17, 0x01	; 1
    13c0:	37 fe       	sbrs	r3, 7
    13c2:	07 c0       	rjmp	.+14     	; 0x13d2 <vfprintf+0x12e>
    13c4:	1c 33       	cpi	r17, 0x3C	; 60
    13c6:	50 f4       	brcc	.+20     	; 0x13dc <vfprintf+0x138>
    13c8:	ee 24       	eor	r14, r14
    13ca:	e3 94       	inc	r14
    13cc:	e1 0e       	add	r14, r17
    13ce:	27 e0       	ldi	r18, 0x07	; 7
    13d0:	0b c0       	rjmp	.+22     	; 0x13e8 <vfprintf+0x144>
    13d2:	18 30       	cpi	r17, 0x08	; 8
    13d4:	38 f0       	brcs	.+14     	; 0x13e4 <vfprintf+0x140>
    13d6:	27 e0       	ldi	r18, 0x07	; 7
    13d8:	17 e0       	ldi	r17, 0x07	; 7
    13da:	05 c0       	rjmp	.+10     	; 0x13e6 <vfprintf+0x142>
    13dc:	27 e0       	ldi	r18, 0x07	; 7
    13de:	4c e3       	ldi	r20, 0x3C	; 60
    13e0:	e4 2e       	mov	r14, r20
    13e2:	02 c0       	rjmp	.+4      	; 0x13e8 <vfprintf+0x144>
    13e4:	21 2f       	mov	r18, r17
    13e6:	e1 2c       	mov	r14, r1
    13e8:	52 01       	movw	r10, r4
    13ea:	44 e0       	ldi	r20, 0x04	; 4
    13ec:	a4 0e       	add	r10, r20
    13ee:	b1 1c       	adc	r11, r1
    13f0:	f2 01       	movw	r30, r4
    13f2:	60 81       	ld	r22, Z
    13f4:	71 81       	ldd	r23, Z+1	; 0x01
    13f6:	82 81       	ldd	r24, Z+2	; 0x02
    13f8:	93 81       	ldd	r25, Z+3	; 0x03
    13fa:	0e 2d       	mov	r16, r14
    13fc:	a3 01       	movw	r20, r6
    13fe:	0e 94 c1 0e 	call	0x1d82	; 0x1d82 <__ftoa_engine>
    1402:	2c 01       	movw	r4, r24
    1404:	09 81       	ldd	r16, Y+1	; 0x01
    1406:	00 ff       	sbrs	r16, 0
    1408:	02 c0       	rjmp	.+4      	; 0x140e <vfprintf+0x16a>
    140a:	03 ff       	sbrs	r16, 3
    140c:	07 c0       	rjmp	.+14     	; 0x141c <vfprintf+0x178>
    140e:	31 fc       	sbrc	r3, 1
    1410:	08 c0       	rjmp	.+16     	; 0x1422 <vfprintf+0x17e>
    1412:	32 fe       	sbrs	r3, 2
    1414:	09 c0       	rjmp	.+18     	; 0x1428 <vfprintf+0x184>
    1416:	30 e2       	ldi	r19, 0x20	; 32
    1418:	23 2e       	mov	r2, r19
    141a:	07 c0       	rjmp	.+14     	; 0x142a <vfprintf+0x186>
    141c:	2d e2       	ldi	r18, 0x2D	; 45
    141e:	22 2e       	mov	r2, r18
    1420:	04 c0       	rjmp	.+8      	; 0x142a <vfprintf+0x186>
    1422:	9b e2       	ldi	r25, 0x2B	; 43
    1424:	29 2e       	mov	r2, r25
    1426:	01 c0       	rjmp	.+2      	; 0x142a <vfprintf+0x186>
    1428:	21 2c       	mov	r2, r1
    142a:	80 2f       	mov	r24, r16
    142c:	8c 70       	andi	r24, 0x0C	; 12
    142e:	19 f0       	breq	.+6      	; 0x1436 <vfprintf+0x192>
    1430:	21 10       	cpse	r2, r1
    1432:	68 c2       	rjmp	.+1232   	; 0x1904 <vfprintf+0x660>
    1434:	a8 c2       	rjmp	.+1360   	; 0x1986 <vfprintf+0x6e2>
    1436:	37 fe       	sbrs	r3, 7
    1438:	0f c0       	rjmp	.+30     	; 0x1458 <vfprintf+0x1b4>
    143a:	e4 0c       	add	r14, r4
    143c:	04 ff       	sbrs	r16, 4
    143e:	04 c0       	rjmp	.+8      	; 0x1448 <vfprintf+0x1a4>
    1440:	8a 81       	ldd	r24, Y+2	; 0x02
    1442:	81 33       	cpi	r24, 0x31	; 49
    1444:	09 f4       	brne	.+2      	; 0x1448 <vfprintf+0x1a4>
    1446:	ea 94       	dec	r14
    1448:	1e 14       	cp	r1, r14
    144a:	74 f5       	brge	.+92     	; 0x14a8 <vfprintf+0x204>
    144c:	f8 e0       	ldi	r31, 0x08	; 8
    144e:	fe 15       	cp	r31, r14
    1450:	78 f5       	brcc	.+94     	; 0x14b0 <vfprintf+0x20c>
    1452:	88 e0       	ldi	r24, 0x08	; 8
    1454:	e8 2e       	mov	r14, r24
    1456:	2c c0       	rjmp	.+88     	; 0x14b0 <vfprintf+0x20c>
    1458:	36 fc       	sbrc	r3, 6
    145a:	2a c0       	rjmp	.+84     	; 0x14b0 <vfprintf+0x20c>
    145c:	81 2f       	mov	r24, r17
    145e:	90 e0       	ldi	r25, 0x00	; 0
    1460:	84 15       	cp	r24, r4
    1462:	95 05       	cpc	r25, r5
    1464:	9c f0       	brlt	.+38     	; 0x148c <vfprintf+0x1e8>
    1466:	2c ef       	ldi	r18, 0xFC	; 252
    1468:	42 16       	cp	r4, r18
    146a:	2f ef       	ldi	r18, 0xFF	; 255
    146c:	52 06       	cpc	r5, r18
    146e:	74 f0       	brlt	.+28     	; 0x148c <vfprintf+0x1e8>
    1470:	43 2d       	mov	r20, r3
    1472:	40 68       	ori	r20, 0x80	; 128
    1474:	34 2e       	mov	r3, r20
    1476:	0a c0       	rjmp	.+20     	; 0x148c <vfprintf+0x1e8>
    1478:	e2 e0       	ldi	r30, 0x02	; 2
    147a:	f0 e0       	ldi	r31, 0x00	; 0
    147c:	ec 0f       	add	r30, r28
    147e:	fd 1f       	adc	r31, r29
    1480:	e1 0f       	add	r30, r17
    1482:	f1 1d       	adc	r31, r1
    1484:	80 81       	ld	r24, Z
    1486:	80 33       	cpi	r24, 0x30	; 48
    1488:	19 f4       	brne	.+6      	; 0x1490 <vfprintf+0x1ec>
    148a:	11 50       	subi	r17, 0x01	; 1
    148c:	11 11       	cpse	r17, r1
    148e:	f4 cf       	rjmp	.-24     	; 0x1478 <vfprintf+0x1d4>
    1490:	37 fe       	sbrs	r3, 7
    1492:	0e c0       	rjmp	.+28     	; 0x14b0 <vfprintf+0x20c>
    1494:	ee 24       	eor	r14, r14
    1496:	e3 94       	inc	r14
    1498:	e1 0e       	add	r14, r17
    149a:	81 2f       	mov	r24, r17
    149c:	90 e0       	ldi	r25, 0x00	; 0
    149e:	48 16       	cp	r4, r24
    14a0:	59 06       	cpc	r5, r25
    14a2:	2c f4       	brge	.+10     	; 0x14ae <vfprintf+0x20a>
    14a4:	14 19       	sub	r17, r4
    14a6:	04 c0       	rjmp	.+8      	; 0x14b0 <vfprintf+0x20c>
    14a8:	ee 24       	eor	r14, r14
    14aa:	e3 94       	inc	r14
    14ac:	01 c0       	rjmp	.+2      	; 0x14b0 <vfprintf+0x20c>
    14ae:	10 e0       	ldi	r17, 0x00	; 0
    14b0:	37 fe       	sbrs	r3, 7
    14b2:	06 c0       	rjmp	.+12     	; 0x14c0 <vfprintf+0x21c>
    14b4:	14 14       	cp	r1, r4
    14b6:	15 04       	cpc	r1, r5
    14b8:	34 f4       	brge	.+12     	; 0x14c6 <vfprintf+0x222>
    14ba:	c2 01       	movw	r24, r4
    14bc:	01 96       	adiw	r24, 0x01	; 1
    14be:	05 c0       	rjmp	.+10     	; 0x14ca <vfprintf+0x226>
    14c0:	85 e0       	ldi	r24, 0x05	; 5
    14c2:	90 e0       	ldi	r25, 0x00	; 0
    14c4:	02 c0       	rjmp	.+4      	; 0x14ca <vfprintf+0x226>
    14c6:	81 e0       	ldi	r24, 0x01	; 1
    14c8:	90 e0       	ldi	r25, 0x00	; 0
    14ca:	21 10       	cpse	r2, r1
    14cc:	01 96       	adiw	r24, 0x01	; 1
    14ce:	11 23       	and	r17, r17
    14d0:	31 f0       	breq	.+12     	; 0x14de <vfprintf+0x23a>
    14d2:	21 2f       	mov	r18, r17
    14d4:	30 e0       	ldi	r19, 0x00	; 0
    14d6:	2f 5f       	subi	r18, 0xFF	; 255
    14d8:	3f 4f       	sbci	r19, 0xFF	; 255
    14da:	82 0f       	add	r24, r18
    14dc:	93 1f       	adc	r25, r19
    14de:	2f 2d       	mov	r18, r15
    14e0:	30 e0       	ldi	r19, 0x00	; 0
    14e2:	82 17       	cp	r24, r18
    14e4:	93 07       	cpc	r25, r19
    14e6:	14 f4       	brge	.+4      	; 0x14ec <vfprintf+0x248>
    14e8:	f8 1a       	sub	r15, r24
    14ea:	01 c0       	rjmp	.+2      	; 0x14ee <vfprintf+0x24a>
    14ec:	f1 2c       	mov	r15, r1
    14ee:	83 2d       	mov	r24, r3
    14f0:	89 70       	andi	r24, 0x09	; 9
    14f2:	49 f4       	brne	.+18     	; 0x1506 <vfprintf+0x262>
    14f4:	ff 20       	and	r15, r15
    14f6:	39 f0       	breq	.+14     	; 0x1506 <vfprintf+0x262>
    14f8:	b6 01       	movw	r22, r12
    14fa:	80 e2       	ldi	r24, 0x20	; 32
    14fc:	90 e0       	ldi	r25, 0x00	; 0
    14fe:	0e 94 b6 0f 	call	0x1f6c	; 0x1f6c <fputc>
    1502:	fa 94       	dec	r15
    1504:	f7 cf       	rjmp	.-18     	; 0x14f4 <vfprintf+0x250>
    1506:	22 20       	and	r2, r2
    1508:	29 f0       	breq	.+10     	; 0x1514 <vfprintf+0x270>
    150a:	b6 01       	movw	r22, r12
    150c:	82 2d       	mov	r24, r2
    150e:	90 e0       	ldi	r25, 0x00	; 0
    1510:	0e 94 b6 0f 	call	0x1f6c	; 0x1f6c <fputc>
    1514:	33 fc       	sbrc	r3, 3
    1516:	09 c0       	rjmp	.+18     	; 0x152a <vfprintf+0x286>
    1518:	ff 20       	and	r15, r15
    151a:	39 f0       	breq	.+14     	; 0x152a <vfprintf+0x286>
    151c:	b6 01       	movw	r22, r12
    151e:	80 e3       	ldi	r24, 0x30	; 48
    1520:	90 e0       	ldi	r25, 0x00	; 0
    1522:	0e 94 b6 0f 	call	0x1f6c	; 0x1f6c <fputc>
    1526:	fa 94       	dec	r15
    1528:	f7 cf       	rjmp	.-18     	; 0x1518 <vfprintf+0x274>
    152a:	37 fe       	sbrs	r3, 7
    152c:	5a c0       	rjmp	.+180    	; 0x15e2 <vfprintf+0x33e>
    152e:	94 2d       	mov	r25, r4
    1530:	85 2d       	mov	r24, r5
    1532:	57 fe       	sbrs	r5, 7
    1534:	02 c0       	rjmp	.+4      	; 0x153a <vfprintf+0x296>
    1536:	90 e0       	ldi	r25, 0x00	; 0
    1538:	80 e0       	ldi	r24, 0x00	; 0
    153a:	29 2e       	mov	r2, r25
    153c:	38 2e       	mov	r3, r24
    153e:	20 e0       	ldi	r18, 0x00	; 0
    1540:	30 e0       	ldi	r19, 0x00	; 0
    1542:	a2 01       	movw	r20, r4
    1544:	4e 19       	sub	r20, r14
    1546:	51 09       	sbc	r21, r1
    1548:	5d 87       	std	Y+13, r21	; 0x0d
    154a:	4c 87       	std	Y+12, r20	; 0x0c
    154c:	a2 01       	movw	r20, r4
    154e:	42 19       	sub	r20, r2
    1550:	53 09       	sbc	r21, r3
    1552:	5f 87       	std	Y+15, r21	; 0x0f
    1554:	4e 87       	std	Y+14, r20	; 0x0e
    1556:	61 2f       	mov	r22, r17
    1558:	70 e0       	ldi	r23, 0x00	; 0
    155a:	44 27       	eor	r20, r20
    155c:	55 27       	eor	r21, r21
    155e:	46 1b       	sub	r20, r22
    1560:	57 0b       	sbc	r21, r23
    1562:	59 8b       	std	Y+17, r21	; 0x11
    1564:	48 8b       	std	Y+16, r20	; 0x10
    1566:	5f ef       	ldi	r21, 0xFF	; 255
    1568:	25 16       	cp	r2, r21
    156a:	35 06       	cpc	r3, r21
    156c:	49 f4       	brne	.+18     	; 0x1580 <vfprintf+0x2dc>
    156e:	b6 01       	movw	r22, r12
    1570:	8e e2       	ldi	r24, 0x2E	; 46
    1572:	90 e0       	ldi	r25, 0x00	; 0
    1574:	2a 8b       	std	Y+18, r18	; 0x12
    1576:	3b 8b       	std	Y+19, r19	; 0x13
    1578:	0e 94 b6 0f 	call	0x1f6c	; 0x1f6c <fputc>
    157c:	3b 89       	ldd	r19, Y+19	; 0x13
    157e:	2a 89       	ldd	r18, Y+18	; 0x12
    1580:	42 14       	cp	r4, r2
    1582:	53 04       	cpc	r5, r3
    1584:	6c f0       	brlt	.+26     	; 0x15a0 <vfprintf+0x2fc>
    1586:	4c 85       	ldd	r20, Y+12	; 0x0c
    1588:	5d 85       	ldd	r21, Y+13	; 0x0d
    158a:	42 15       	cp	r20, r2
    158c:	53 05       	cpc	r21, r3
    158e:	44 f4       	brge	.+16     	; 0x15a0 <vfprintf+0x2fc>
    1590:	ee 85       	ldd	r30, Y+14	; 0x0e
    1592:	ff 85       	ldd	r31, Y+15	; 0x0f
    1594:	e2 0f       	add	r30, r18
    1596:	f3 1f       	adc	r31, r19
    1598:	e6 0d       	add	r30, r6
    159a:	f7 1d       	adc	r31, r7
    159c:	81 81       	ldd	r24, Z+1	; 0x01
    159e:	01 c0       	rjmp	.+2      	; 0x15a2 <vfprintf+0x2fe>
    15a0:	80 e3       	ldi	r24, 0x30	; 48
    15a2:	51 e0       	ldi	r21, 0x01	; 1
    15a4:	25 1a       	sub	r2, r21
    15a6:	31 08       	sbc	r3, r1
    15a8:	2f 5f       	subi	r18, 0xFF	; 255
    15aa:	3f 4f       	sbci	r19, 0xFF	; 255
    15ac:	48 89       	ldd	r20, Y+16	; 0x10
    15ae:	59 89       	ldd	r21, Y+17	; 0x11
    15b0:	24 16       	cp	r2, r20
    15b2:	35 06       	cpc	r3, r21
    15b4:	4c f0       	brlt	.+18     	; 0x15c8 <vfprintf+0x324>
    15b6:	b6 01       	movw	r22, r12
    15b8:	90 e0       	ldi	r25, 0x00	; 0
    15ba:	2a 8b       	std	Y+18, r18	; 0x12
    15bc:	3b 8b       	std	Y+19, r19	; 0x13
    15be:	0e 94 b6 0f 	call	0x1f6c	; 0x1f6c <fputc>
    15c2:	2a 89       	ldd	r18, Y+18	; 0x12
    15c4:	3b 89       	ldd	r19, Y+19	; 0x13
    15c6:	cf cf       	rjmp	.-98     	; 0x1566 <vfprintf+0x2c2>
    15c8:	24 14       	cp	r2, r4
    15ca:	35 04       	cpc	r3, r5
    15cc:	39 f4       	brne	.+14     	; 0x15dc <vfprintf+0x338>
    15ce:	9a 81       	ldd	r25, Y+2	; 0x02
    15d0:	96 33       	cpi	r25, 0x36	; 54
    15d2:	18 f4       	brcc	.+6      	; 0x15da <vfprintf+0x336>
    15d4:	95 33       	cpi	r25, 0x35	; 53
    15d6:	11 f4       	brne	.+4      	; 0x15dc <vfprintf+0x338>
    15d8:	04 ff       	sbrs	r16, 4
    15da:	81 e3       	ldi	r24, 0x31	; 49
    15dc:	b6 01       	movw	r22, r12
    15de:	90 e0       	ldi	r25, 0x00	; 0
    15e0:	4b c0       	rjmp	.+150    	; 0x1678 <vfprintf+0x3d4>
    15e2:	8a 81       	ldd	r24, Y+2	; 0x02
    15e4:	81 33       	cpi	r24, 0x31	; 49
    15e6:	09 f0       	breq	.+2      	; 0x15ea <vfprintf+0x346>
    15e8:	0f 7e       	andi	r16, 0xEF	; 239
    15ea:	b6 01       	movw	r22, r12
    15ec:	90 e0       	ldi	r25, 0x00	; 0
    15ee:	0e 94 b6 0f 	call	0x1f6c	; 0x1f6c <fputc>
    15f2:	11 11       	cpse	r17, r1
    15f4:	05 c0       	rjmp	.+10     	; 0x1600 <vfprintf+0x35c>
    15f6:	34 fc       	sbrc	r3, 4
    15f8:	18 c0       	rjmp	.+48     	; 0x162a <vfprintf+0x386>
    15fa:	85 e6       	ldi	r24, 0x65	; 101
    15fc:	90 e0       	ldi	r25, 0x00	; 0
    15fe:	17 c0       	rjmp	.+46     	; 0x162e <vfprintf+0x38a>
    1600:	b6 01       	movw	r22, r12
    1602:	8e e2       	ldi	r24, 0x2E	; 46
    1604:	90 e0       	ldi	r25, 0x00	; 0
    1606:	0e 94 b6 0f 	call	0x1f6c	; 0x1f6c <fputc>
    160a:	82 e0       	ldi	r24, 0x02	; 2
    160c:	ee 24       	eor	r14, r14
    160e:	e3 94       	inc	r14
    1610:	e8 0e       	add	r14, r24
    1612:	f3 01       	movw	r30, r6
    1614:	e8 0f       	add	r30, r24
    1616:	f1 1d       	adc	r31, r1
    1618:	80 81       	ld	r24, Z
    161a:	b6 01       	movw	r22, r12
    161c:	90 e0       	ldi	r25, 0x00	; 0
    161e:	0e 94 b6 0f 	call	0x1f6c	; 0x1f6c <fputc>
    1622:	11 50       	subi	r17, 0x01	; 1
    1624:	8e 2d       	mov	r24, r14
    1626:	91 f7       	brne	.-28     	; 0x160c <vfprintf+0x368>
    1628:	e6 cf       	rjmp	.-52     	; 0x15f6 <vfprintf+0x352>
    162a:	85 e4       	ldi	r24, 0x45	; 69
    162c:	90 e0       	ldi	r25, 0x00	; 0
    162e:	b6 01       	movw	r22, r12
    1630:	0e 94 b6 0f 	call	0x1f6c	; 0x1f6c <fputc>
    1634:	57 fc       	sbrc	r5, 7
    1636:	05 c0       	rjmp	.+10     	; 0x1642 <vfprintf+0x39e>
    1638:	41 14       	cp	r4, r1
    163a:	51 04       	cpc	r5, r1
    163c:	39 f4       	brne	.+14     	; 0x164c <vfprintf+0x3a8>
    163e:	04 ff       	sbrs	r16, 4
    1640:	05 c0       	rjmp	.+10     	; 0x164c <vfprintf+0x3a8>
    1642:	51 94       	neg	r5
    1644:	41 94       	neg	r4
    1646:	51 08       	sbc	r5, r1
    1648:	8d e2       	ldi	r24, 0x2D	; 45
    164a:	01 c0       	rjmp	.+2      	; 0x164e <vfprintf+0x3aa>
    164c:	8b e2       	ldi	r24, 0x2B	; 43
    164e:	b6 01       	movw	r22, r12
    1650:	90 e0       	ldi	r25, 0x00	; 0
    1652:	0e 94 b6 0f 	call	0x1f6c	; 0x1f6c <fputc>
    1656:	80 e3       	ldi	r24, 0x30	; 48
    1658:	9a e0       	ldi	r25, 0x0A	; 10
    165a:	49 16       	cp	r4, r25
    165c:	51 04       	cpc	r5, r1
    165e:	2c f0       	brlt	.+10     	; 0x166a <vfprintf+0x3c6>
    1660:	8f 5f       	subi	r24, 0xFF	; 255
    1662:	5a e0       	ldi	r21, 0x0A	; 10
    1664:	45 1a       	sub	r4, r21
    1666:	51 08       	sbc	r5, r1
    1668:	f7 cf       	rjmp	.-18     	; 0x1658 <vfprintf+0x3b4>
    166a:	b6 01       	movw	r22, r12
    166c:	90 e0       	ldi	r25, 0x00	; 0
    166e:	0e 94 b6 0f 	call	0x1f6c	; 0x1f6c <fputc>
    1672:	b6 01       	movw	r22, r12
    1674:	c2 01       	movw	r24, r4
    1676:	c0 96       	adiw	r24, 0x30	; 48
    1678:	0e 94 b6 0f 	call	0x1f6c	; 0x1f6c <fputc>
    167c:	57 c1       	rjmp	.+686    	; 0x192c <vfprintf+0x688>
    167e:	83 36       	cpi	r24, 0x63	; 99
    1680:	31 f0       	breq	.+12     	; 0x168e <vfprintf+0x3ea>
    1682:	83 37       	cpi	r24, 0x73	; 115
    1684:	79 f0       	breq	.+30     	; 0x16a4 <vfprintf+0x400>
    1686:	83 35       	cpi	r24, 0x53	; 83
    1688:	09 f0       	breq	.+2      	; 0x168c <vfprintf+0x3e8>
    168a:	58 c0       	rjmp	.+176    	; 0x173c <vfprintf+0x498>
    168c:	21 c0       	rjmp	.+66     	; 0x16d0 <vfprintf+0x42c>
    168e:	52 01       	movw	r10, r4
    1690:	e2 e0       	ldi	r30, 0x02	; 2
    1692:	ae 0e       	add	r10, r30
    1694:	b1 1c       	adc	r11, r1
    1696:	f2 01       	movw	r30, r4
    1698:	80 81       	ld	r24, Z
    169a:	89 83       	std	Y+1, r24	; 0x01
    169c:	01 e0       	ldi	r16, 0x01	; 1
    169e:	10 e0       	ldi	r17, 0x00	; 0
    16a0:	23 01       	movw	r4, r6
    16a2:	14 c0       	rjmp	.+40     	; 0x16cc <vfprintf+0x428>
    16a4:	52 01       	movw	r10, r4
    16a6:	f2 e0       	ldi	r31, 0x02	; 2
    16a8:	af 0e       	add	r10, r31
    16aa:	b1 1c       	adc	r11, r1
    16ac:	f2 01       	movw	r30, r4
    16ae:	40 80       	ld	r4, Z
    16b0:	51 80       	ldd	r5, Z+1	; 0x01
    16b2:	26 ff       	sbrs	r18, 6
    16b4:	03 c0       	rjmp	.+6      	; 0x16bc <vfprintf+0x418>
    16b6:	61 2f       	mov	r22, r17
    16b8:	70 e0       	ldi	r23, 0x00	; 0
    16ba:	02 c0       	rjmp	.+4      	; 0x16c0 <vfprintf+0x41c>
    16bc:	6f ef       	ldi	r22, 0xFF	; 255
    16be:	7f ef       	ldi	r23, 0xFF	; 255
    16c0:	c2 01       	movw	r24, r4
    16c2:	2a 8b       	std	Y+18, r18	; 0x12
    16c4:	0e 94 ab 0f 	call	0x1f56	; 0x1f56 <strnlen>
    16c8:	8c 01       	movw	r16, r24
    16ca:	2a 89       	ldd	r18, Y+18	; 0x12
    16cc:	2f 77       	andi	r18, 0x7F	; 127
    16ce:	15 c0       	rjmp	.+42     	; 0x16fa <vfprintf+0x456>
    16d0:	52 01       	movw	r10, r4
    16d2:	f2 e0       	ldi	r31, 0x02	; 2
    16d4:	af 0e       	add	r10, r31
    16d6:	b1 1c       	adc	r11, r1
    16d8:	f2 01       	movw	r30, r4
    16da:	40 80       	ld	r4, Z
    16dc:	51 80       	ldd	r5, Z+1	; 0x01
    16de:	26 ff       	sbrs	r18, 6
    16e0:	03 c0       	rjmp	.+6      	; 0x16e8 <vfprintf+0x444>
    16e2:	61 2f       	mov	r22, r17
    16e4:	70 e0       	ldi	r23, 0x00	; 0
    16e6:	02 c0       	rjmp	.+4      	; 0x16ec <vfprintf+0x448>
    16e8:	6f ef       	ldi	r22, 0xFF	; 255
    16ea:	7f ef       	ldi	r23, 0xFF	; 255
    16ec:	c2 01       	movw	r24, r4
    16ee:	2a 8b       	std	Y+18, r18	; 0x12
    16f0:	0e 94 99 0f 	call	0x1f32	; 0x1f32 <strnlen_P>
    16f4:	8c 01       	movw	r16, r24
    16f6:	2a 89       	ldd	r18, Y+18	; 0x12
    16f8:	20 68       	ori	r18, 0x80	; 128
    16fa:	32 2e       	mov	r3, r18
    16fc:	23 fd       	sbrc	r18, 3
    16fe:	1a c0       	rjmp	.+52     	; 0x1734 <vfprintf+0x490>
    1700:	8f 2d       	mov	r24, r15
    1702:	90 e0       	ldi	r25, 0x00	; 0
    1704:	08 17       	cp	r16, r24
    1706:	19 07       	cpc	r17, r25
    1708:	a8 f4       	brcc	.+42     	; 0x1734 <vfprintf+0x490>
    170a:	b6 01       	movw	r22, r12
    170c:	80 e2       	ldi	r24, 0x20	; 32
    170e:	90 e0       	ldi	r25, 0x00	; 0
    1710:	0e 94 b6 0f 	call	0x1f6c	; 0x1f6c <fputc>
    1714:	fa 94       	dec	r15
    1716:	f4 cf       	rjmp	.-24     	; 0x1700 <vfprintf+0x45c>
    1718:	f2 01       	movw	r30, r4
    171a:	37 fc       	sbrc	r3, 7
    171c:	85 91       	lpm	r24, Z+
    171e:	37 fe       	sbrs	r3, 7
    1720:	81 91       	ld	r24, Z+
    1722:	2f 01       	movw	r4, r30
    1724:	b6 01       	movw	r22, r12
    1726:	90 e0       	ldi	r25, 0x00	; 0
    1728:	0e 94 b6 0f 	call	0x1f6c	; 0x1f6c <fputc>
    172c:	f1 10       	cpse	r15, r1
    172e:	fa 94       	dec	r15
    1730:	01 50       	subi	r16, 0x01	; 1
    1732:	11 09       	sbc	r17, r1
    1734:	01 15       	cp	r16, r1
    1736:	11 05       	cpc	r17, r1
    1738:	79 f7       	brne	.-34     	; 0x1718 <vfprintf+0x474>
    173a:	f8 c0       	rjmp	.+496    	; 0x192c <vfprintf+0x688>
    173c:	84 36       	cpi	r24, 0x64	; 100
    173e:	11 f0       	breq	.+4      	; 0x1744 <vfprintf+0x4a0>
    1740:	89 36       	cpi	r24, 0x69	; 105
    1742:	59 f5       	brne	.+86     	; 0x179a <vfprintf+0x4f6>
    1744:	52 01       	movw	r10, r4
    1746:	27 ff       	sbrs	r18, 7
    1748:	09 c0       	rjmp	.+18     	; 0x175c <vfprintf+0x4b8>
    174a:	f4 e0       	ldi	r31, 0x04	; 4
    174c:	af 0e       	add	r10, r31
    174e:	b1 1c       	adc	r11, r1
    1750:	f2 01       	movw	r30, r4
    1752:	60 81       	ld	r22, Z
    1754:	71 81       	ldd	r23, Z+1	; 0x01
    1756:	82 81       	ldd	r24, Z+2	; 0x02
    1758:	93 81       	ldd	r25, Z+3	; 0x03
    175a:	0a c0       	rjmp	.+20     	; 0x1770 <vfprintf+0x4cc>
    175c:	f2 e0       	ldi	r31, 0x02	; 2
    175e:	af 0e       	add	r10, r31
    1760:	b1 1c       	adc	r11, r1
    1762:	f2 01       	movw	r30, r4
    1764:	60 81       	ld	r22, Z
    1766:	71 81       	ldd	r23, Z+1	; 0x01
    1768:	07 2e       	mov	r0, r23
    176a:	00 0c       	add	r0, r0
    176c:	88 0b       	sbc	r24, r24
    176e:	99 0b       	sbc	r25, r25
    1770:	2f 76       	andi	r18, 0x6F	; 111
    1772:	32 2e       	mov	r3, r18
    1774:	97 ff       	sbrs	r25, 7
    1776:	09 c0       	rjmp	.+18     	; 0x178a <vfprintf+0x4e6>
    1778:	90 95       	com	r25
    177a:	80 95       	com	r24
    177c:	70 95       	com	r23
    177e:	61 95       	neg	r22
    1780:	7f 4f       	sbci	r23, 0xFF	; 255
    1782:	8f 4f       	sbci	r24, 0xFF	; 255
    1784:	9f 4f       	sbci	r25, 0xFF	; 255
    1786:	20 68       	ori	r18, 0x80	; 128
    1788:	32 2e       	mov	r3, r18
    178a:	2a e0       	ldi	r18, 0x0A	; 10
    178c:	30 e0       	ldi	r19, 0x00	; 0
    178e:	a3 01       	movw	r20, r6
    1790:	0e 94 11 10 	call	0x2022	; 0x2022 <__ultoa_invert>
    1794:	e8 2e       	mov	r14, r24
    1796:	e6 18       	sub	r14, r6
    1798:	3f c0       	rjmp	.+126    	; 0x1818 <vfprintf+0x574>
    179a:	02 2f       	mov	r16, r18
    179c:	85 37       	cpi	r24, 0x75	; 117
    179e:	21 f4       	brne	.+8      	; 0x17a8 <vfprintf+0x504>
    17a0:	0f 7e       	andi	r16, 0xEF	; 239
    17a2:	2a e0       	ldi	r18, 0x0A	; 10
    17a4:	30 e0       	ldi	r19, 0x00	; 0
    17a6:	1d c0       	rjmp	.+58     	; 0x17e2 <vfprintf+0x53e>
    17a8:	09 7f       	andi	r16, 0xF9	; 249
    17aa:	8f 36       	cpi	r24, 0x6F	; 111
    17ac:	91 f0       	breq	.+36     	; 0x17d2 <vfprintf+0x52e>
    17ae:	18 f4       	brcc	.+6      	; 0x17b6 <vfprintf+0x512>
    17b0:	88 35       	cpi	r24, 0x58	; 88
    17b2:	59 f0       	breq	.+22     	; 0x17ca <vfprintf+0x526>
    17b4:	c5 c0       	rjmp	.+394    	; 0x1940 <vfprintf+0x69c>
    17b6:	80 37       	cpi	r24, 0x70	; 112
    17b8:	19 f0       	breq	.+6      	; 0x17c0 <vfprintf+0x51c>
    17ba:	88 37       	cpi	r24, 0x78	; 120
    17bc:	11 f0       	breq	.+4      	; 0x17c2 <vfprintf+0x51e>
    17be:	c0 c0       	rjmp	.+384    	; 0x1940 <vfprintf+0x69c>
    17c0:	00 61       	ori	r16, 0x10	; 16
    17c2:	04 ff       	sbrs	r16, 4
    17c4:	09 c0       	rjmp	.+18     	; 0x17d8 <vfprintf+0x534>
    17c6:	04 60       	ori	r16, 0x04	; 4
    17c8:	07 c0       	rjmp	.+14     	; 0x17d8 <vfprintf+0x534>
    17ca:	24 ff       	sbrs	r18, 4
    17cc:	08 c0       	rjmp	.+16     	; 0x17de <vfprintf+0x53a>
    17ce:	06 60       	ori	r16, 0x06	; 6
    17d0:	06 c0       	rjmp	.+12     	; 0x17de <vfprintf+0x53a>
    17d2:	28 e0       	ldi	r18, 0x08	; 8
    17d4:	30 e0       	ldi	r19, 0x00	; 0
    17d6:	05 c0       	rjmp	.+10     	; 0x17e2 <vfprintf+0x53e>
    17d8:	20 e1       	ldi	r18, 0x10	; 16
    17da:	30 e0       	ldi	r19, 0x00	; 0
    17dc:	02 c0       	rjmp	.+4      	; 0x17e2 <vfprintf+0x53e>
    17de:	20 e1       	ldi	r18, 0x10	; 16
    17e0:	32 e0       	ldi	r19, 0x02	; 2
    17e2:	52 01       	movw	r10, r4
    17e4:	07 ff       	sbrs	r16, 7
    17e6:	09 c0       	rjmp	.+18     	; 0x17fa <vfprintf+0x556>
    17e8:	f4 e0       	ldi	r31, 0x04	; 4
    17ea:	af 0e       	add	r10, r31
    17ec:	b1 1c       	adc	r11, r1
    17ee:	f2 01       	movw	r30, r4
    17f0:	60 81       	ld	r22, Z
    17f2:	71 81       	ldd	r23, Z+1	; 0x01
    17f4:	82 81       	ldd	r24, Z+2	; 0x02
    17f6:	93 81       	ldd	r25, Z+3	; 0x03
    17f8:	08 c0       	rjmp	.+16     	; 0x180a <vfprintf+0x566>
    17fa:	f2 e0       	ldi	r31, 0x02	; 2
    17fc:	af 0e       	add	r10, r31
    17fe:	b1 1c       	adc	r11, r1
    1800:	f2 01       	movw	r30, r4
    1802:	60 81       	ld	r22, Z
    1804:	71 81       	ldd	r23, Z+1	; 0x01
    1806:	80 e0       	ldi	r24, 0x00	; 0
    1808:	90 e0       	ldi	r25, 0x00	; 0
    180a:	a3 01       	movw	r20, r6
    180c:	0e 94 11 10 	call	0x2022	; 0x2022 <__ultoa_invert>
    1810:	e8 2e       	mov	r14, r24
    1812:	e6 18       	sub	r14, r6
    1814:	0f 77       	andi	r16, 0x7F	; 127
    1816:	30 2e       	mov	r3, r16
    1818:	36 fe       	sbrs	r3, 6
    181a:	0b c0       	rjmp	.+22     	; 0x1832 <vfprintf+0x58e>
    181c:	33 2d       	mov	r19, r3
    181e:	3e 7f       	andi	r19, 0xFE	; 254
    1820:	e1 16       	cp	r14, r17
    1822:	50 f4       	brcc	.+20     	; 0x1838 <vfprintf+0x594>
    1824:	34 fe       	sbrs	r3, 4
    1826:	0a c0       	rjmp	.+20     	; 0x183c <vfprintf+0x598>
    1828:	32 fc       	sbrc	r3, 2
    182a:	08 c0       	rjmp	.+16     	; 0x183c <vfprintf+0x598>
    182c:	33 2d       	mov	r19, r3
    182e:	3e 7e       	andi	r19, 0xEE	; 238
    1830:	05 c0       	rjmp	.+10     	; 0x183c <vfprintf+0x598>
    1832:	0e 2d       	mov	r16, r14
    1834:	33 2d       	mov	r19, r3
    1836:	03 c0       	rjmp	.+6      	; 0x183e <vfprintf+0x59a>
    1838:	0e 2d       	mov	r16, r14
    183a:	01 c0       	rjmp	.+2      	; 0x183e <vfprintf+0x59a>
    183c:	01 2f       	mov	r16, r17
    183e:	34 ff       	sbrs	r19, 4
    1840:	0c c0       	rjmp	.+24     	; 0x185a <vfprintf+0x5b6>
    1842:	fe 01       	movw	r30, r28
    1844:	ee 0d       	add	r30, r14
    1846:	f1 1d       	adc	r31, r1
    1848:	80 81       	ld	r24, Z
    184a:	80 33       	cpi	r24, 0x30	; 48
    184c:	11 f4       	brne	.+4      	; 0x1852 <vfprintf+0x5ae>
    184e:	39 7e       	andi	r19, 0xE9	; 233
    1850:	08 c0       	rjmp	.+16     	; 0x1862 <vfprintf+0x5be>
    1852:	32 ff       	sbrs	r19, 2
    1854:	05 c0       	rjmp	.+10     	; 0x1860 <vfprintf+0x5bc>
    1856:	0e 5f       	subi	r16, 0xFE	; 254
    1858:	04 c0       	rjmp	.+8      	; 0x1862 <vfprintf+0x5be>
    185a:	83 2f       	mov	r24, r19
    185c:	86 78       	andi	r24, 0x86	; 134
    185e:	09 f0       	breq	.+2      	; 0x1862 <vfprintf+0x5be>
    1860:	0f 5f       	subi	r16, 0xFF	; 255
    1862:	33 fd       	sbrc	r19, 3
    1864:	13 c0       	rjmp	.+38     	; 0x188c <vfprintf+0x5e8>
    1866:	30 ff       	sbrs	r19, 0
    1868:	06 c0       	rjmp	.+12     	; 0x1876 <vfprintf+0x5d2>
    186a:	1e 2d       	mov	r17, r14
    186c:	0f 15       	cp	r16, r15
    186e:	18 f4       	brcc	.+6      	; 0x1876 <vfprintf+0x5d2>
    1870:	1f 0d       	add	r17, r15
    1872:	10 1b       	sub	r17, r16
    1874:	0f 2d       	mov	r16, r15
    1876:	0f 15       	cp	r16, r15
    1878:	68 f4       	brcc	.+26     	; 0x1894 <vfprintf+0x5f0>
    187a:	b6 01       	movw	r22, r12
    187c:	80 e2       	ldi	r24, 0x20	; 32
    187e:	90 e0       	ldi	r25, 0x00	; 0
    1880:	3b 8b       	std	Y+19, r19	; 0x13
    1882:	0e 94 b6 0f 	call	0x1f6c	; 0x1f6c <fputc>
    1886:	0f 5f       	subi	r16, 0xFF	; 255
    1888:	3b 89       	ldd	r19, Y+19	; 0x13
    188a:	f5 cf       	rjmp	.-22     	; 0x1876 <vfprintf+0x5d2>
    188c:	0f 15       	cp	r16, r15
    188e:	10 f4       	brcc	.+4      	; 0x1894 <vfprintf+0x5f0>
    1890:	f0 1a       	sub	r15, r16
    1892:	01 c0       	rjmp	.+2      	; 0x1896 <vfprintf+0x5f2>
    1894:	f1 2c       	mov	r15, r1
    1896:	34 ff       	sbrs	r19, 4
    1898:	12 c0       	rjmp	.+36     	; 0x18be <vfprintf+0x61a>
    189a:	b6 01       	movw	r22, r12
    189c:	80 e3       	ldi	r24, 0x30	; 48
    189e:	90 e0       	ldi	r25, 0x00	; 0
    18a0:	3b 8b       	std	Y+19, r19	; 0x13
    18a2:	0e 94 b6 0f 	call	0x1f6c	; 0x1f6c <fputc>
    18a6:	3b 89       	ldd	r19, Y+19	; 0x13
    18a8:	32 ff       	sbrs	r19, 2
    18aa:	17 c0       	rjmp	.+46     	; 0x18da <vfprintf+0x636>
    18ac:	31 fd       	sbrc	r19, 1
    18ae:	03 c0       	rjmp	.+6      	; 0x18b6 <vfprintf+0x612>
    18b0:	88 e7       	ldi	r24, 0x78	; 120
    18b2:	90 e0       	ldi	r25, 0x00	; 0
    18b4:	02 c0       	rjmp	.+4      	; 0x18ba <vfprintf+0x616>
    18b6:	88 e5       	ldi	r24, 0x58	; 88
    18b8:	90 e0       	ldi	r25, 0x00	; 0
    18ba:	b6 01       	movw	r22, r12
    18bc:	0c c0       	rjmp	.+24     	; 0x18d6 <vfprintf+0x632>
    18be:	83 2f       	mov	r24, r19
    18c0:	86 78       	andi	r24, 0x86	; 134
    18c2:	59 f0       	breq	.+22     	; 0x18da <vfprintf+0x636>
    18c4:	31 ff       	sbrs	r19, 1
    18c6:	02 c0       	rjmp	.+4      	; 0x18cc <vfprintf+0x628>
    18c8:	8b e2       	ldi	r24, 0x2B	; 43
    18ca:	01 c0       	rjmp	.+2      	; 0x18ce <vfprintf+0x62a>
    18cc:	80 e2       	ldi	r24, 0x20	; 32
    18ce:	37 fd       	sbrc	r19, 7
    18d0:	8d e2       	ldi	r24, 0x2D	; 45
    18d2:	b6 01       	movw	r22, r12
    18d4:	90 e0       	ldi	r25, 0x00	; 0
    18d6:	0e 94 b6 0f 	call	0x1f6c	; 0x1f6c <fputc>
    18da:	e1 16       	cp	r14, r17
    18dc:	38 f4       	brcc	.+14     	; 0x18ec <vfprintf+0x648>
    18de:	b6 01       	movw	r22, r12
    18e0:	80 e3       	ldi	r24, 0x30	; 48
    18e2:	90 e0       	ldi	r25, 0x00	; 0
    18e4:	0e 94 b6 0f 	call	0x1f6c	; 0x1f6c <fputc>
    18e8:	11 50       	subi	r17, 0x01	; 1
    18ea:	f7 cf       	rjmp	.-18     	; 0x18da <vfprintf+0x636>
    18ec:	ea 94       	dec	r14
    18ee:	f3 01       	movw	r30, r6
    18f0:	ee 0d       	add	r30, r14
    18f2:	f1 1d       	adc	r31, r1
    18f4:	80 81       	ld	r24, Z
    18f6:	b6 01       	movw	r22, r12
    18f8:	90 e0       	ldi	r25, 0x00	; 0
    18fa:	0e 94 b6 0f 	call	0x1f6c	; 0x1f6c <fputc>
    18fe:	e1 10       	cpse	r14, r1
    1900:	f5 cf       	rjmp	.-22     	; 0x18ec <vfprintf+0x648>
    1902:	14 c0       	rjmp	.+40     	; 0x192c <vfprintf+0x688>
    1904:	f4 e0       	ldi	r31, 0x04	; 4
    1906:	ff 15       	cp	r31, r15
    1908:	58 f5       	brcc	.+86     	; 0x1960 <vfprintf+0x6bc>
    190a:	84 e0       	ldi	r24, 0x04	; 4
    190c:	f8 1a       	sub	r15, r24
    190e:	33 fe       	sbrs	r3, 3
    1910:	1e c0       	rjmp	.+60     	; 0x194e <vfprintf+0x6aa>
    1912:	21 10       	cpse	r2, r1
    1914:	26 c0       	rjmp	.+76     	; 0x1962 <vfprintf+0x6be>
    1916:	03 ff       	sbrs	r16, 3
    1918:	2a c0       	rjmp	.+84     	; 0x196e <vfprintf+0x6ca>
    191a:	08 e6       	ldi	r16, 0x68	; 104
    191c:	10 e0       	ldi	r17, 0x00	; 0
    191e:	f3 2d       	mov	r31, r3
    1920:	f0 71       	andi	r31, 0x10	; 16
    1922:	3f 2e       	mov	r3, r31
    1924:	f8 01       	movw	r30, r16
    1926:	84 91       	lpm	r24, Z
    1928:	81 11       	cpse	r24, r1
    192a:	24 c0       	rjmp	.+72     	; 0x1974 <vfprintf+0x6d0>
    192c:	ff 20       	and	r15, r15
    192e:	09 f4       	brne	.+2      	; 0x1932 <vfprintf+0x68e>
    1930:	e5 cc       	rjmp	.-1590   	; 0x12fc <vfprintf+0x58>
    1932:	b6 01       	movw	r22, r12
    1934:	80 e2       	ldi	r24, 0x20	; 32
    1936:	90 e0       	ldi	r25, 0x00	; 0
    1938:	0e 94 b6 0f 	call	0x1f6c	; 0x1f6c <fputc>
    193c:	fa 94       	dec	r15
    193e:	f6 cf       	rjmp	.-20     	; 0x192c <vfprintf+0x688>
    1940:	f6 01       	movw	r30, r12
    1942:	86 81       	ldd	r24, Z+6	; 0x06
    1944:	97 81       	ldd	r25, Z+7	; 0x07
    1946:	26 c0       	rjmp	.+76     	; 0x1994 <vfprintf+0x6f0>
    1948:	8f ef       	ldi	r24, 0xFF	; 255
    194a:	9f ef       	ldi	r25, 0xFF	; 255
    194c:	23 c0       	rjmp	.+70     	; 0x1994 <vfprintf+0x6f0>
    194e:	b6 01       	movw	r22, r12
    1950:	80 e2       	ldi	r24, 0x20	; 32
    1952:	90 e0       	ldi	r25, 0x00	; 0
    1954:	0e 94 b6 0f 	call	0x1f6c	; 0x1f6c <fputc>
    1958:	fa 94       	dec	r15
    195a:	f1 10       	cpse	r15, r1
    195c:	f8 cf       	rjmp	.-16     	; 0x194e <vfprintf+0x6aa>
    195e:	d9 cf       	rjmp	.-78     	; 0x1912 <vfprintf+0x66e>
    1960:	f1 2c       	mov	r15, r1
    1962:	b6 01       	movw	r22, r12
    1964:	82 2d       	mov	r24, r2
    1966:	90 e0       	ldi	r25, 0x00	; 0
    1968:	0e 94 b6 0f 	call	0x1f6c	; 0x1f6c <fputc>
    196c:	d4 cf       	rjmp	.-88     	; 0x1916 <vfprintf+0x672>
    196e:	0c e6       	ldi	r16, 0x6C	; 108
    1970:	10 e0       	ldi	r17, 0x00	; 0
    1972:	d5 cf       	rjmp	.-86     	; 0x191e <vfprintf+0x67a>
    1974:	31 10       	cpse	r3, r1
    1976:	80 52       	subi	r24, 0x20	; 32
    1978:	b6 01       	movw	r22, r12
    197a:	90 e0       	ldi	r25, 0x00	; 0
    197c:	0e 94 b6 0f 	call	0x1f6c	; 0x1f6c <fputc>
    1980:	0f 5f       	subi	r16, 0xFF	; 255
    1982:	1f 4f       	sbci	r17, 0xFF	; 255
    1984:	cf cf       	rjmp	.-98     	; 0x1924 <vfprintf+0x680>
    1986:	23 e0       	ldi	r18, 0x03	; 3
    1988:	2f 15       	cp	r18, r15
    198a:	10 f4       	brcc	.+4      	; 0x1990 <vfprintf+0x6ec>
    198c:	83 e0       	ldi	r24, 0x03	; 3
    198e:	be cf       	rjmp	.-132    	; 0x190c <vfprintf+0x668>
    1990:	f1 2c       	mov	r15, r1
    1992:	c1 cf       	rjmp	.-126    	; 0x1916 <vfprintf+0x672>
    1994:	63 96       	adiw	r28, 0x13	; 19
    1996:	e2 e1       	ldi	r30, 0x12	; 18
    1998:	0c 94 2c 0d 	jmp	0x1a58	; 0x1a58 <__epilogue_restores__>

0000199c <__mulsi3>:
    199c:	db 01       	movw	r26, r22
    199e:	8f 93       	push	r24
    19a0:	9f 93       	push	r25
    19a2:	0e 94 fd 0c 	call	0x19fa	; 0x19fa <__muluhisi3>
    19a6:	bf 91       	pop	r27
    19a8:	af 91       	pop	r26
    19aa:	a2 9f       	mul	r26, r18
    19ac:	80 0d       	add	r24, r0
    19ae:	91 1d       	adc	r25, r1
    19b0:	a3 9f       	mul	r26, r19
    19b2:	90 0d       	add	r25, r0
    19b4:	b2 9f       	mul	r27, r18
    19b6:	90 0d       	add	r25, r0
    19b8:	11 24       	eor	r1, r1
    19ba:	08 95       	ret

000019bc <__divmodsi4>:
    19bc:	05 2e       	mov	r0, r21
    19be:	97 fb       	bst	r25, 7
    19c0:	1e f4       	brtc	.+6      	; 0x19c8 <__divmodsi4+0xc>
    19c2:	00 94       	com	r0
    19c4:	0e 94 f5 0c 	call	0x19ea	; 0x19ea <__negsi2>
    19c8:	57 fd       	sbrc	r21, 7
    19ca:	07 d0       	rcall	.+14     	; 0x19da <__divmodsi4_neg2>
    19cc:	0e 94 47 0d 	call	0x1a8e	; 0x1a8e <__udivmodsi4>
    19d0:	07 fc       	sbrc	r0, 7
    19d2:	03 d0       	rcall	.+6      	; 0x19da <__divmodsi4_neg2>
    19d4:	4e f4       	brtc	.+18     	; 0x19e8 <__divmodsi4_exit>
    19d6:	0c 94 f5 0c 	jmp	0x19ea	; 0x19ea <__negsi2>

000019da <__divmodsi4_neg2>:
    19da:	50 95       	com	r21
    19dc:	40 95       	com	r20
    19de:	30 95       	com	r19
    19e0:	21 95       	neg	r18
    19e2:	3f 4f       	sbci	r19, 0xFF	; 255
    19e4:	4f 4f       	sbci	r20, 0xFF	; 255
    19e6:	5f 4f       	sbci	r21, 0xFF	; 255

000019e8 <__divmodsi4_exit>:
    19e8:	08 95       	ret

000019ea <__negsi2>:
    19ea:	90 95       	com	r25
    19ec:	80 95       	com	r24
    19ee:	70 95       	com	r23
    19f0:	61 95       	neg	r22
    19f2:	7f 4f       	sbci	r23, 0xFF	; 255
    19f4:	8f 4f       	sbci	r24, 0xFF	; 255
    19f6:	9f 4f       	sbci	r25, 0xFF	; 255
    19f8:	08 95       	ret

000019fa <__muluhisi3>:
    19fa:	0e 94 69 0d 	call	0x1ad2	; 0x1ad2 <__umulhisi3>
    19fe:	a5 9f       	mul	r26, r21
    1a00:	90 0d       	add	r25, r0
    1a02:	b4 9f       	mul	r27, r20
    1a04:	90 0d       	add	r25, r0
    1a06:	a4 9f       	mul	r26, r20
    1a08:	80 0d       	add	r24, r0
    1a0a:	91 1d       	adc	r25, r1
    1a0c:	11 24       	eor	r1, r1
    1a0e:	08 95       	ret

00001a10 <__mulshisi3>:
    1a10:	b7 ff       	sbrs	r27, 7
    1a12:	0c 94 fd 0c 	jmp	0x19fa	; 0x19fa <__muluhisi3>

00001a16 <__mulohisi3>:
    1a16:	0e 94 fd 0c 	call	0x19fa	; 0x19fa <__muluhisi3>
    1a1a:	82 1b       	sub	r24, r18
    1a1c:	93 0b       	sbc	r25, r19
    1a1e:	08 95       	ret

00001a20 <__prologue_saves__>:
    1a20:	2f 92       	push	r2
    1a22:	3f 92       	push	r3
    1a24:	4f 92       	push	r4
    1a26:	5f 92       	push	r5
    1a28:	6f 92       	push	r6
    1a2a:	7f 92       	push	r7
    1a2c:	8f 92       	push	r8
    1a2e:	9f 92       	push	r9
    1a30:	af 92       	push	r10
    1a32:	bf 92       	push	r11
    1a34:	cf 92       	push	r12
    1a36:	df 92       	push	r13
    1a38:	ef 92       	push	r14
    1a3a:	ff 92       	push	r15
    1a3c:	0f 93       	push	r16
    1a3e:	1f 93       	push	r17
    1a40:	cf 93       	push	r28
    1a42:	df 93       	push	r29
    1a44:	cd b7       	in	r28, 0x3d	; 61
    1a46:	de b7       	in	r29, 0x3e	; 62
    1a48:	ca 1b       	sub	r28, r26
    1a4a:	db 0b       	sbc	r29, r27
    1a4c:	0f b6       	in	r0, 0x3f	; 63
    1a4e:	f8 94       	cli
    1a50:	de bf       	out	0x3e, r29	; 62
    1a52:	0f be       	out	0x3f, r0	; 63
    1a54:	cd bf       	out	0x3d, r28	; 61
    1a56:	09 94       	ijmp

00001a58 <__epilogue_restores__>:
    1a58:	2a 88       	ldd	r2, Y+18	; 0x12
    1a5a:	39 88       	ldd	r3, Y+17	; 0x11
    1a5c:	48 88       	ldd	r4, Y+16	; 0x10
    1a5e:	5f 84       	ldd	r5, Y+15	; 0x0f
    1a60:	6e 84       	ldd	r6, Y+14	; 0x0e
    1a62:	7d 84       	ldd	r7, Y+13	; 0x0d
    1a64:	8c 84       	ldd	r8, Y+12	; 0x0c
    1a66:	9b 84       	ldd	r9, Y+11	; 0x0b
    1a68:	aa 84       	ldd	r10, Y+10	; 0x0a
    1a6a:	b9 84       	ldd	r11, Y+9	; 0x09
    1a6c:	c8 84       	ldd	r12, Y+8	; 0x08
    1a6e:	df 80       	ldd	r13, Y+7	; 0x07
    1a70:	ee 80       	ldd	r14, Y+6	; 0x06
    1a72:	fd 80       	ldd	r15, Y+5	; 0x05
    1a74:	0c 81       	ldd	r16, Y+4	; 0x04
    1a76:	1b 81       	ldd	r17, Y+3	; 0x03
    1a78:	aa 81       	ldd	r26, Y+2	; 0x02
    1a7a:	b9 81       	ldd	r27, Y+1	; 0x01
    1a7c:	ce 0f       	add	r28, r30
    1a7e:	d1 1d       	adc	r29, r1
    1a80:	0f b6       	in	r0, 0x3f	; 63
    1a82:	f8 94       	cli
    1a84:	de bf       	out	0x3e, r29	; 62
    1a86:	0f be       	out	0x3f, r0	; 63
    1a88:	cd bf       	out	0x3d, r28	; 61
    1a8a:	ed 01       	movw	r28, r26
    1a8c:	08 95       	ret

00001a8e <__udivmodsi4>:
    1a8e:	a1 e2       	ldi	r26, 0x21	; 33
    1a90:	1a 2e       	mov	r1, r26
    1a92:	aa 1b       	sub	r26, r26
    1a94:	bb 1b       	sub	r27, r27
    1a96:	fd 01       	movw	r30, r26
    1a98:	0d c0       	rjmp	.+26     	; 0x1ab4 <__udivmodsi4_ep>

00001a9a <__udivmodsi4_loop>:
    1a9a:	aa 1f       	adc	r26, r26
    1a9c:	bb 1f       	adc	r27, r27
    1a9e:	ee 1f       	adc	r30, r30
    1aa0:	ff 1f       	adc	r31, r31
    1aa2:	a2 17       	cp	r26, r18
    1aa4:	b3 07       	cpc	r27, r19
    1aa6:	e4 07       	cpc	r30, r20
    1aa8:	f5 07       	cpc	r31, r21
    1aaa:	20 f0       	brcs	.+8      	; 0x1ab4 <__udivmodsi4_ep>
    1aac:	a2 1b       	sub	r26, r18
    1aae:	b3 0b       	sbc	r27, r19
    1ab0:	e4 0b       	sbc	r30, r20
    1ab2:	f5 0b       	sbc	r31, r21

00001ab4 <__udivmodsi4_ep>:
    1ab4:	66 1f       	adc	r22, r22
    1ab6:	77 1f       	adc	r23, r23
    1ab8:	88 1f       	adc	r24, r24
    1aba:	99 1f       	adc	r25, r25
    1abc:	1a 94       	dec	r1
    1abe:	69 f7       	brne	.-38     	; 0x1a9a <__udivmodsi4_loop>
    1ac0:	60 95       	com	r22
    1ac2:	70 95       	com	r23
    1ac4:	80 95       	com	r24
    1ac6:	90 95       	com	r25
    1ac8:	9b 01       	movw	r18, r22
    1aca:	ac 01       	movw	r20, r24
    1acc:	bd 01       	movw	r22, r26
    1ace:	cf 01       	movw	r24, r30
    1ad0:	08 95       	ret

00001ad2 <__umulhisi3>:
    1ad2:	a2 9f       	mul	r26, r18
    1ad4:	b0 01       	movw	r22, r0
    1ad6:	b3 9f       	mul	r27, r19
    1ad8:	c0 01       	movw	r24, r0
    1ada:	a3 9f       	mul	r26, r19
    1adc:	70 0d       	add	r23, r0
    1ade:	81 1d       	adc	r24, r1
    1ae0:	11 24       	eor	r1, r1
    1ae2:	91 1d       	adc	r25, r1
    1ae4:	b2 9f       	mul	r27, r18
    1ae6:	70 0d       	add	r23, r0
    1ae8:	81 1d       	adc	r24, r1
    1aea:	11 24       	eor	r1, r1
    1aec:	91 1d       	adc	r25, r1
    1aee:	08 95       	ret

00001af0 <calloc>:
    1af0:	0f 93       	push	r16
    1af2:	1f 93       	push	r17
    1af4:	cf 93       	push	r28
    1af6:	df 93       	push	r29
    1af8:	86 9f       	mul	r24, r22
    1afa:	80 01       	movw	r16, r0
    1afc:	87 9f       	mul	r24, r23
    1afe:	10 0d       	add	r17, r0
    1b00:	96 9f       	mul	r25, r22
    1b02:	10 0d       	add	r17, r0
    1b04:	11 24       	eor	r1, r1
    1b06:	c8 01       	movw	r24, r16
    1b08:	0e 94 94 0d 	call	0x1b28	; 0x1b28 <malloc>
    1b0c:	ec 01       	movw	r28, r24
    1b0e:	00 97       	sbiw	r24, 0x00	; 0
    1b10:	29 f0       	breq	.+10     	; 0x1b1c <calloc+0x2c>
    1b12:	a8 01       	movw	r20, r16
    1b14:	60 e0       	ldi	r22, 0x00	; 0
    1b16:	70 e0       	ldi	r23, 0x00	; 0
    1b18:	0e 94 a4 0f 	call	0x1f48	; 0x1f48 <memset>
    1b1c:	ce 01       	movw	r24, r28
    1b1e:	df 91       	pop	r29
    1b20:	cf 91       	pop	r28
    1b22:	1f 91       	pop	r17
    1b24:	0f 91       	pop	r16
    1b26:	08 95       	ret

00001b28 <malloc>:
    1b28:	cf 93       	push	r28
    1b2a:	df 93       	push	r29
    1b2c:	82 30       	cpi	r24, 0x02	; 2
    1b2e:	91 05       	cpc	r25, r1
    1b30:	10 f4       	brcc	.+4      	; 0x1b36 <malloc+0xe>
    1b32:	82 e0       	ldi	r24, 0x02	; 2
    1b34:	90 e0       	ldi	r25, 0x00	; 0
    1b36:	e0 91 4a 01 	lds	r30, 0x014A	; 0x80014a <__flp>
    1b3a:	f0 91 4b 01 	lds	r31, 0x014B	; 0x80014b <__flp+0x1>
    1b3e:	20 e0       	ldi	r18, 0x00	; 0
    1b40:	30 e0       	ldi	r19, 0x00	; 0
    1b42:	c0 e0       	ldi	r28, 0x00	; 0
    1b44:	d0 e0       	ldi	r29, 0x00	; 0
    1b46:	30 97       	sbiw	r30, 0x00	; 0
    1b48:	11 f1       	breq	.+68     	; 0x1b8e <malloc+0x66>
    1b4a:	40 81       	ld	r20, Z
    1b4c:	51 81       	ldd	r21, Z+1	; 0x01
    1b4e:	48 17       	cp	r20, r24
    1b50:	59 07       	cpc	r21, r25
    1b52:	c0 f0       	brcs	.+48     	; 0x1b84 <malloc+0x5c>
    1b54:	48 17       	cp	r20, r24
    1b56:	59 07       	cpc	r21, r25
    1b58:	61 f4       	brne	.+24     	; 0x1b72 <malloc+0x4a>
    1b5a:	82 81       	ldd	r24, Z+2	; 0x02
    1b5c:	93 81       	ldd	r25, Z+3	; 0x03
    1b5e:	20 97       	sbiw	r28, 0x00	; 0
    1b60:	19 f0       	breq	.+6      	; 0x1b68 <malloc+0x40>
    1b62:	9b 83       	std	Y+3, r25	; 0x03
    1b64:	8a 83       	std	Y+2, r24	; 0x02
    1b66:	2b c0       	rjmp	.+86     	; 0x1bbe <malloc+0x96>
    1b68:	90 93 4b 01 	sts	0x014B, r25	; 0x80014b <__flp+0x1>
    1b6c:	80 93 4a 01 	sts	0x014A, r24	; 0x80014a <__flp>
    1b70:	26 c0       	rjmp	.+76     	; 0x1bbe <malloc+0x96>
    1b72:	21 15       	cp	r18, r1
    1b74:	31 05       	cpc	r19, r1
    1b76:	19 f0       	breq	.+6      	; 0x1b7e <malloc+0x56>
    1b78:	42 17       	cp	r20, r18
    1b7a:	53 07       	cpc	r21, r19
    1b7c:	18 f4       	brcc	.+6      	; 0x1b84 <malloc+0x5c>
    1b7e:	9a 01       	movw	r18, r20
    1b80:	be 01       	movw	r22, r28
    1b82:	df 01       	movw	r26, r30
    1b84:	ef 01       	movw	r28, r30
    1b86:	02 80       	ldd	r0, Z+2	; 0x02
    1b88:	f3 81       	ldd	r31, Z+3	; 0x03
    1b8a:	e0 2d       	mov	r30, r0
    1b8c:	dc cf       	rjmp	.-72     	; 0x1b46 <malloc+0x1e>
    1b8e:	21 15       	cp	r18, r1
    1b90:	31 05       	cpc	r19, r1
    1b92:	09 f1       	breq	.+66     	; 0x1bd6 <malloc+0xae>
    1b94:	28 1b       	sub	r18, r24
    1b96:	39 0b       	sbc	r19, r25
    1b98:	24 30       	cpi	r18, 0x04	; 4
    1b9a:	31 05       	cpc	r19, r1
    1b9c:	90 f4       	brcc	.+36     	; 0x1bc2 <malloc+0x9a>
    1b9e:	12 96       	adiw	r26, 0x02	; 2
    1ba0:	8d 91       	ld	r24, X+
    1ba2:	9c 91       	ld	r25, X
    1ba4:	13 97       	sbiw	r26, 0x03	; 3
    1ba6:	61 15       	cp	r22, r1
    1ba8:	71 05       	cpc	r23, r1
    1baa:	21 f0       	breq	.+8      	; 0x1bb4 <malloc+0x8c>
    1bac:	fb 01       	movw	r30, r22
    1bae:	93 83       	std	Z+3, r25	; 0x03
    1bb0:	82 83       	std	Z+2, r24	; 0x02
    1bb2:	04 c0       	rjmp	.+8      	; 0x1bbc <malloc+0x94>
    1bb4:	90 93 4b 01 	sts	0x014B, r25	; 0x80014b <__flp+0x1>
    1bb8:	80 93 4a 01 	sts	0x014A, r24	; 0x80014a <__flp>
    1bbc:	fd 01       	movw	r30, r26
    1bbe:	32 96       	adiw	r30, 0x02	; 2
    1bc0:	44 c0       	rjmp	.+136    	; 0x1c4a <malloc+0x122>
    1bc2:	fd 01       	movw	r30, r26
    1bc4:	e2 0f       	add	r30, r18
    1bc6:	f3 1f       	adc	r31, r19
    1bc8:	81 93       	st	Z+, r24
    1bca:	91 93       	st	Z+, r25
    1bcc:	22 50       	subi	r18, 0x02	; 2
    1bce:	31 09       	sbc	r19, r1
    1bd0:	2d 93       	st	X+, r18
    1bd2:	3c 93       	st	X, r19
    1bd4:	3a c0       	rjmp	.+116    	; 0x1c4a <malloc+0x122>
    1bd6:	20 91 48 01 	lds	r18, 0x0148	; 0x800148 <__data_end>
    1bda:	30 91 49 01 	lds	r19, 0x0149	; 0x800149 <__data_end+0x1>
    1bde:	23 2b       	or	r18, r19
    1be0:	41 f4       	brne	.+16     	; 0x1bf2 <malloc+0xca>
    1be2:	20 91 02 01 	lds	r18, 0x0102	; 0x800102 <__malloc_heap_start>
    1be6:	30 91 03 01 	lds	r19, 0x0103	; 0x800103 <__malloc_heap_start+0x1>
    1bea:	30 93 49 01 	sts	0x0149, r19	; 0x800149 <__data_end+0x1>
    1bee:	20 93 48 01 	sts	0x0148, r18	; 0x800148 <__data_end>
    1bf2:	20 91 00 01 	lds	r18, 0x0100	; 0x800100 <__data_start>
    1bf6:	30 91 01 01 	lds	r19, 0x0101	; 0x800101 <__data_start+0x1>
    1bfa:	21 15       	cp	r18, r1
    1bfc:	31 05       	cpc	r19, r1
    1bfe:	41 f4       	brne	.+16     	; 0x1c10 <malloc+0xe8>
    1c00:	2d b7       	in	r18, 0x3d	; 61
    1c02:	3e b7       	in	r19, 0x3e	; 62
    1c04:	40 91 04 01 	lds	r20, 0x0104	; 0x800104 <__malloc_margin>
    1c08:	50 91 05 01 	lds	r21, 0x0105	; 0x800105 <__malloc_margin+0x1>
    1c0c:	24 1b       	sub	r18, r20
    1c0e:	35 0b       	sbc	r19, r21
    1c10:	e0 91 48 01 	lds	r30, 0x0148	; 0x800148 <__data_end>
    1c14:	f0 91 49 01 	lds	r31, 0x0149	; 0x800149 <__data_end+0x1>
    1c18:	e2 17       	cp	r30, r18
    1c1a:	f3 07       	cpc	r31, r19
    1c1c:	a0 f4       	brcc	.+40     	; 0x1c46 <malloc+0x11e>
    1c1e:	2e 1b       	sub	r18, r30
    1c20:	3f 0b       	sbc	r19, r31
    1c22:	28 17       	cp	r18, r24
    1c24:	39 07       	cpc	r19, r25
    1c26:	78 f0       	brcs	.+30     	; 0x1c46 <malloc+0x11e>
    1c28:	ac 01       	movw	r20, r24
    1c2a:	4e 5f       	subi	r20, 0xFE	; 254
    1c2c:	5f 4f       	sbci	r21, 0xFF	; 255
    1c2e:	24 17       	cp	r18, r20
    1c30:	35 07       	cpc	r19, r21
    1c32:	48 f0       	brcs	.+18     	; 0x1c46 <malloc+0x11e>
    1c34:	4e 0f       	add	r20, r30
    1c36:	5f 1f       	adc	r21, r31
    1c38:	50 93 49 01 	sts	0x0149, r21	; 0x800149 <__data_end+0x1>
    1c3c:	40 93 48 01 	sts	0x0148, r20	; 0x800148 <__data_end>
    1c40:	81 93       	st	Z+, r24
    1c42:	91 93       	st	Z+, r25
    1c44:	02 c0       	rjmp	.+4      	; 0x1c4a <malloc+0x122>
    1c46:	e0 e0       	ldi	r30, 0x00	; 0
    1c48:	f0 e0       	ldi	r31, 0x00	; 0
    1c4a:	cf 01       	movw	r24, r30
    1c4c:	df 91       	pop	r29
    1c4e:	cf 91       	pop	r28
    1c50:	08 95       	ret

00001c52 <free>:
    1c52:	0f 93       	push	r16
    1c54:	1f 93       	push	r17
    1c56:	cf 93       	push	r28
    1c58:	df 93       	push	r29
    1c5a:	00 97       	sbiw	r24, 0x00	; 0
    1c5c:	09 f4       	brne	.+2      	; 0x1c60 <free+0xe>
    1c5e:	8c c0       	rjmp	.+280    	; 0x1d78 <free+0x126>
    1c60:	fc 01       	movw	r30, r24
    1c62:	32 97       	sbiw	r30, 0x02	; 2
    1c64:	13 82       	std	Z+3, r1	; 0x03
    1c66:	12 82       	std	Z+2, r1	; 0x02
    1c68:	00 91 4a 01 	lds	r16, 0x014A	; 0x80014a <__flp>
    1c6c:	10 91 4b 01 	lds	r17, 0x014B	; 0x80014b <__flp+0x1>
    1c70:	01 15       	cp	r16, r1
    1c72:	11 05       	cpc	r17, r1
    1c74:	81 f4       	brne	.+32     	; 0x1c96 <free+0x44>
    1c76:	20 81       	ld	r18, Z
    1c78:	31 81       	ldd	r19, Z+1	; 0x01
    1c7a:	82 0f       	add	r24, r18
    1c7c:	93 1f       	adc	r25, r19
    1c7e:	20 91 48 01 	lds	r18, 0x0148	; 0x800148 <__data_end>
    1c82:	30 91 49 01 	lds	r19, 0x0149	; 0x800149 <__data_end+0x1>
    1c86:	28 17       	cp	r18, r24
    1c88:	39 07       	cpc	r19, r25
    1c8a:	79 f5       	brne	.+94     	; 0x1cea <free+0x98>
    1c8c:	f0 93 49 01 	sts	0x0149, r31	; 0x800149 <__data_end+0x1>
    1c90:	e0 93 48 01 	sts	0x0148, r30	; 0x800148 <__data_end>
    1c94:	71 c0       	rjmp	.+226    	; 0x1d78 <free+0x126>
    1c96:	d8 01       	movw	r26, r16
    1c98:	40 e0       	ldi	r20, 0x00	; 0
    1c9a:	50 e0       	ldi	r21, 0x00	; 0
    1c9c:	ae 17       	cp	r26, r30
    1c9e:	bf 07       	cpc	r27, r31
    1ca0:	50 f4       	brcc	.+20     	; 0x1cb6 <free+0x64>
    1ca2:	12 96       	adiw	r26, 0x02	; 2
    1ca4:	2d 91       	ld	r18, X+
    1ca6:	3c 91       	ld	r19, X
    1ca8:	13 97       	sbiw	r26, 0x03	; 3
    1caa:	ad 01       	movw	r20, r26
    1cac:	21 15       	cp	r18, r1
    1cae:	31 05       	cpc	r19, r1
    1cb0:	09 f1       	breq	.+66     	; 0x1cf4 <free+0xa2>
    1cb2:	d9 01       	movw	r26, r18
    1cb4:	f3 cf       	rjmp	.-26     	; 0x1c9c <free+0x4a>
    1cb6:	9d 01       	movw	r18, r26
    1cb8:	da 01       	movw	r26, r20
    1cba:	33 83       	std	Z+3, r19	; 0x03
    1cbc:	22 83       	std	Z+2, r18	; 0x02
    1cbe:	60 81       	ld	r22, Z
    1cc0:	71 81       	ldd	r23, Z+1	; 0x01
    1cc2:	86 0f       	add	r24, r22
    1cc4:	97 1f       	adc	r25, r23
    1cc6:	82 17       	cp	r24, r18
    1cc8:	93 07       	cpc	r25, r19
    1cca:	69 f4       	brne	.+26     	; 0x1ce6 <free+0x94>
    1ccc:	ec 01       	movw	r28, r24
    1cce:	28 81       	ld	r18, Y
    1cd0:	39 81       	ldd	r19, Y+1	; 0x01
    1cd2:	26 0f       	add	r18, r22
    1cd4:	37 1f       	adc	r19, r23
    1cd6:	2e 5f       	subi	r18, 0xFE	; 254
    1cd8:	3f 4f       	sbci	r19, 0xFF	; 255
    1cda:	31 83       	std	Z+1, r19	; 0x01
    1cdc:	20 83       	st	Z, r18
    1cde:	8a 81       	ldd	r24, Y+2	; 0x02
    1ce0:	9b 81       	ldd	r25, Y+3	; 0x03
    1ce2:	93 83       	std	Z+3, r25	; 0x03
    1ce4:	82 83       	std	Z+2, r24	; 0x02
    1ce6:	45 2b       	or	r20, r21
    1ce8:	29 f4       	brne	.+10     	; 0x1cf4 <free+0xa2>
    1cea:	f0 93 4b 01 	sts	0x014B, r31	; 0x80014b <__flp+0x1>
    1cee:	e0 93 4a 01 	sts	0x014A, r30	; 0x80014a <__flp>
    1cf2:	42 c0       	rjmp	.+132    	; 0x1d78 <free+0x126>
    1cf4:	13 96       	adiw	r26, 0x03	; 3
    1cf6:	fc 93       	st	X, r31
    1cf8:	ee 93       	st	-X, r30
    1cfa:	12 97       	sbiw	r26, 0x02	; 2
    1cfc:	ed 01       	movw	r28, r26
    1cfe:	49 91       	ld	r20, Y+
    1d00:	59 91       	ld	r21, Y+
    1d02:	9e 01       	movw	r18, r28
    1d04:	24 0f       	add	r18, r20
    1d06:	35 1f       	adc	r19, r21
    1d08:	e2 17       	cp	r30, r18
    1d0a:	f3 07       	cpc	r31, r19
    1d0c:	71 f4       	brne	.+28     	; 0x1d2a <free+0xd8>
    1d0e:	80 81       	ld	r24, Z
    1d10:	91 81       	ldd	r25, Z+1	; 0x01
    1d12:	84 0f       	add	r24, r20
    1d14:	95 1f       	adc	r25, r21
    1d16:	02 96       	adiw	r24, 0x02	; 2
    1d18:	11 96       	adiw	r26, 0x01	; 1
    1d1a:	9c 93       	st	X, r25
    1d1c:	8e 93       	st	-X, r24
    1d1e:	82 81       	ldd	r24, Z+2	; 0x02
    1d20:	93 81       	ldd	r25, Z+3	; 0x03
    1d22:	13 96       	adiw	r26, 0x03	; 3
    1d24:	9c 93       	st	X, r25
    1d26:	8e 93       	st	-X, r24
    1d28:	12 97       	sbiw	r26, 0x02	; 2
    1d2a:	e0 e0       	ldi	r30, 0x00	; 0
    1d2c:	f0 e0       	ldi	r31, 0x00	; 0
    1d2e:	d8 01       	movw	r26, r16
    1d30:	12 96       	adiw	r26, 0x02	; 2
    1d32:	8d 91       	ld	r24, X+
    1d34:	9c 91       	ld	r25, X
    1d36:	13 97       	sbiw	r26, 0x03	; 3
    1d38:	00 97       	sbiw	r24, 0x00	; 0
    1d3a:	19 f0       	breq	.+6      	; 0x1d42 <free+0xf0>
    1d3c:	f8 01       	movw	r30, r16
    1d3e:	8c 01       	movw	r16, r24
    1d40:	f6 cf       	rjmp	.-20     	; 0x1d2e <free+0xdc>
    1d42:	8d 91       	ld	r24, X+
    1d44:	9c 91       	ld	r25, X
    1d46:	98 01       	movw	r18, r16
    1d48:	2e 5f       	subi	r18, 0xFE	; 254
    1d4a:	3f 4f       	sbci	r19, 0xFF	; 255
    1d4c:	82 0f       	add	r24, r18
    1d4e:	93 1f       	adc	r25, r19
    1d50:	20 91 48 01 	lds	r18, 0x0148	; 0x800148 <__data_end>
    1d54:	30 91 49 01 	lds	r19, 0x0149	; 0x800149 <__data_end+0x1>
    1d58:	28 17       	cp	r18, r24
    1d5a:	39 07       	cpc	r19, r25
    1d5c:	69 f4       	brne	.+26     	; 0x1d78 <free+0x126>
    1d5e:	30 97       	sbiw	r30, 0x00	; 0
    1d60:	29 f4       	brne	.+10     	; 0x1d6c <free+0x11a>
    1d62:	10 92 4b 01 	sts	0x014B, r1	; 0x80014b <__flp+0x1>
    1d66:	10 92 4a 01 	sts	0x014A, r1	; 0x80014a <__flp>
    1d6a:	02 c0       	rjmp	.+4      	; 0x1d70 <free+0x11e>
    1d6c:	13 82       	std	Z+3, r1	; 0x03
    1d6e:	12 82       	std	Z+2, r1	; 0x02
    1d70:	10 93 49 01 	sts	0x0149, r17	; 0x800149 <__data_end+0x1>
    1d74:	00 93 48 01 	sts	0x0148, r16	; 0x800148 <__data_end>
    1d78:	df 91       	pop	r29
    1d7a:	cf 91       	pop	r28
    1d7c:	1f 91       	pop	r17
    1d7e:	0f 91       	pop	r16
    1d80:	08 95       	ret

00001d82 <__ftoa_engine>:
    1d82:	28 30       	cpi	r18, 0x08	; 8
    1d84:	08 f0       	brcs	.+2      	; 0x1d88 <__ftoa_engine+0x6>
    1d86:	27 e0       	ldi	r18, 0x07	; 7
    1d88:	33 27       	eor	r19, r19
    1d8a:	da 01       	movw	r26, r20
    1d8c:	99 0f       	add	r25, r25
    1d8e:	31 1d       	adc	r19, r1
    1d90:	87 fd       	sbrc	r24, 7
    1d92:	91 60       	ori	r25, 0x01	; 1
    1d94:	00 96       	adiw	r24, 0x00	; 0
    1d96:	61 05       	cpc	r22, r1
    1d98:	71 05       	cpc	r23, r1
    1d9a:	39 f4       	brne	.+14     	; 0x1daa <__ftoa_engine+0x28>
    1d9c:	32 60       	ori	r19, 0x02	; 2
    1d9e:	2e 5f       	subi	r18, 0xFE	; 254
    1da0:	3d 93       	st	X+, r19
    1da2:	30 e3       	ldi	r19, 0x30	; 48
    1da4:	2a 95       	dec	r18
    1da6:	e1 f7       	brne	.-8      	; 0x1da0 <__ftoa_engine+0x1e>
    1da8:	08 95       	ret
    1daa:	9f 3f       	cpi	r25, 0xFF	; 255
    1dac:	30 f0       	brcs	.+12     	; 0x1dba <__ftoa_engine+0x38>
    1dae:	80 38       	cpi	r24, 0x80	; 128
    1db0:	71 05       	cpc	r23, r1
    1db2:	61 05       	cpc	r22, r1
    1db4:	09 f0       	breq	.+2      	; 0x1db8 <__ftoa_engine+0x36>
    1db6:	3c 5f       	subi	r19, 0xFC	; 252
    1db8:	3c 5f       	subi	r19, 0xFC	; 252
    1dba:	3d 93       	st	X+, r19
    1dbc:	91 30       	cpi	r25, 0x01	; 1
    1dbe:	08 f0       	brcs	.+2      	; 0x1dc2 <__ftoa_engine+0x40>
    1dc0:	80 68       	ori	r24, 0x80	; 128
    1dc2:	91 1d       	adc	r25, r1
    1dc4:	df 93       	push	r29
    1dc6:	cf 93       	push	r28
    1dc8:	1f 93       	push	r17
    1dca:	0f 93       	push	r16
    1dcc:	ff 92       	push	r15
    1dce:	ef 92       	push	r14
    1dd0:	19 2f       	mov	r17, r25
    1dd2:	98 7f       	andi	r25, 0xF8	; 248
    1dd4:	96 95       	lsr	r25
    1dd6:	e9 2f       	mov	r30, r25
    1dd8:	96 95       	lsr	r25
    1dda:	96 95       	lsr	r25
    1ddc:	e9 0f       	add	r30, r25
    1dde:	ff 27       	eor	r31, r31
    1de0:	e6 53       	subi	r30, 0x36	; 54
    1de2:	ff 4f       	sbci	r31, 0xFF	; 255
    1de4:	99 27       	eor	r25, r25
    1de6:	33 27       	eor	r19, r19
    1de8:	ee 24       	eor	r14, r14
    1dea:	ff 24       	eor	r15, r15
    1dec:	a7 01       	movw	r20, r14
    1dee:	e7 01       	movw	r28, r14
    1df0:	05 90       	lpm	r0, Z+
    1df2:	08 94       	sec
    1df4:	07 94       	ror	r0
    1df6:	28 f4       	brcc	.+10     	; 0x1e02 <__ftoa_engine+0x80>
    1df8:	36 0f       	add	r19, r22
    1dfa:	e7 1e       	adc	r14, r23
    1dfc:	f8 1e       	adc	r15, r24
    1dfe:	49 1f       	adc	r20, r25
    1e00:	51 1d       	adc	r21, r1
    1e02:	66 0f       	add	r22, r22
    1e04:	77 1f       	adc	r23, r23
    1e06:	88 1f       	adc	r24, r24
    1e08:	99 1f       	adc	r25, r25
    1e0a:	06 94       	lsr	r0
    1e0c:	a1 f7       	brne	.-24     	; 0x1df6 <__ftoa_engine+0x74>
    1e0e:	05 90       	lpm	r0, Z+
    1e10:	07 94       	ror	r0
    1e12:	28 f4       	brcc	.+10     	; 0x1e1e <__ftoa_engine+0x9c>
    1e14:	e7 0e       	add	r14, r23
    1e16:	f8 1e       	adc	r15, r24
    1e18:	49 1f       	adc	r20, r25
    1e1a:	56 1f       	adc	r21, r22
    1e1c:	c1 1d       	adc	r28, r1
    1e1e:	77 0f       	add	r23, r23
    1e20:	88 1f       	adc	r24, r24
    1e22:	99 1f       	adc	r25, r25
    1e24:	66 1f       	adc	r22, r22
    1e26:	06 94       	lsr	r0
    1e28:	a1 f7       	brne	.-24     	; 0x1e12 <__ftoa_engine+0x90>
    1e2a:	05 90       	lpm	r0, Z+
    1e2c:	07 94       	ror	r0
    1e2e:	28 f4       	brcc	.+10     	; 0x1e3a <__ftoa_engine+0xb8>
    1e30:	f8 0e       	add	r15, r24
    1e32:	49 1f       	adc	r20, r25
    1e34:	56 1f       	adc	r21, r22
    1e36:	c7 1f       	adc	r28, r23
    1e38:	d1 1d       	adc	r29, r1
    1e3a:	88 0f       	add	r24, r24
    1e3c:	99 1f       	adc	r25, r25
    1e3e:	66 1f       	adc	r22, r22
    1e40:	77 1f       	adc	r23, r23
    1e42:	06 94       	lsr	r0
    1e44:	a1 f7       	brne	.-24     	; 0x1e2e <__ftoa_engine+0xac>
    1e46:	05 90       	lpm	r0, Z+
    1e48:	07 94       	ror	r0
    1e4a:	20 f4       	brcc	.+8      	; 0x1e54 <__ftoa_engine+0xd2>
    1e4c:	49 0f       	add	r20, r25
    1e4e:	56 1f       	adc	r21, r22
    1e50:	c7 1f       	adc	r28, r23
    1e52:	d8 1f       	adc	r29, r24
    1e54:	99 0f       	add	r25, r25
    1e56:	66 1f       	adc	r22, r22
    1e58:	77 1f       	adc	r23, r23
    1e5a:	88 1f       	adc	r24, r24
    1e5c:	06 94       	lsr	r0
    1e5e:	a9 f7       	brne	.-22     	; 0x1e4a <__ftoa_engine+0xc8>
    1e60:	84 91       	lpm	r24, Z
    1e62:	10 95       	com	r17
    1e64:	17 70       	andi	r17, 0x07	; 7
    1e66:	41 f0       	breq	.+16     	; 0x1e78 <__ftoa_engine+0xf6>
    1e68:	d6 95       	lsr	r29
    1e6a:	c7 95       	ror	r28
    1e6c:	57 95       	ror	r21
    1e6e:	47 95       	ror	r20
    1e70:	f7 94       	ror	r15
    1e72:	e7 94       	ror	r14
    1e74:	1a 95       	dec	r17
    1e76:	c1 f7       	brne	.-16     	; 0x1e68 <__ftoa_engine+0xe6>
    1e78:	e0 e7       	ldi	r30, 0x70	; 112
    1e7a:	f0 e0       	ldi	r31, 0x00	; 0
    1e7c:	68 94       	set
    1e7e:	15 90       	lpm	r1, Z+
    1e80:	15 91       	lpm	r17, Z+
    1e82:	35 91       	lpm	r19, Z+
    1e84:	65 91       	lpm	r22, Z+
    1e86:	95 91       	lpm	r25, Z+
    1e88:	05 90       	lpm	r0, Z+
    1e8a:	7f e2       	ldi	r23, 0x2F	; 47
    1e8c:	73 95       	inc	r23
    1e8e:	e1 18       	sub	r14, r1
    1e90:	f1 0a       	sbc	r15, r17
    1e92:	43 0b       	sbc	r20, r19
    1e94:	56 0b       	sbc	r21, r22
    1e96:	c9 0b       	sbc	r28, r25
    1e98:	d0 09       	sbc	r29, r0
    1e9a:	c0 f7       	brcc	.-16     	; 0x1e8c <__ftoa_engine+0x10a>
    1e9c:	e1 0c       	add	r14, r1
    1e9e:	f1 1e       	adc	r15, r17
    1ea0:	43 1f       	adc	r20, r19
    1ea2:	56 1f       	adc	r21, r22
    1ea4:	c9 1f       	adc	r28, r25
    1ea6:	d0 1d       	adc	r29, r0
    1ea8:	7e f4       	brtc	.+30     	; 0x1ec8 <__ftoa_engine+0x146>
    1eaa:	70 33       	cpi	r23, 0x30	; 48
    1eac:	11 f4       	brne	.+4      	; 0x1eb2 <__ftoa_engine+0x130>
    1eae:	8a 95       	dec	r24
    1eb0:	e6 cf       	rjmp	.-52     	; 0x1e7e <__ftoa_engine+0xfc>
    1eb2:	e8 94       	clt
    1eb4:	01 50       	subi	r16, 0x01	; 1
    1eb6:	30 f0       	brcs	.+12     	; 0x1ec4 <__ftoa_engine+0x142>
    1eb8:	08 0f       	add	r16, r24
    1eba:	0a f4       	brpl	.+2      	; 0x1ebe <__ftoa_engine+0x13c>
    1ebc:	00 27       	eor	r16, r16
    1ebe:	02 17       	cp	r16, r18
    1ec0:	08 f4       	brcc	.+2      	; 0x1ec4 <__ftoa_engine+0x142>
    1ec2:	20 2f       	mov	r18, r16
    1ec4:	23 95       	inc	r18
    1ec6:	02 2f       	mov	r16, r18
    1ec8:	7a 33       	cpi	r23, 0x3A	; 58
    1eca:	28 f0       	brcs	.+10     	; 0x1ed6 <__ftoa_engine+0x154>
    1ecc:	79 e3       	ldi	r23, 0x39	; 57
    1ece:	7d 93       	st	X+, r23
    1ed0:	2a 95       	dec	r18
    1ed2:	e9 f7       	brne	.-6      	; 0x1ece <__ftoa_engine+0x14c>
    1ed4:	10 c0       	rjmp	.+32     	; 0x1ef6 <__ftoa_engine+0x174>
    1ed6:	7d 93       	st	X+, r23
    1ed8:	2a 95       	dec	r18
    1eda:	89 f6       	brne	.-94     	; 0x1e7e <__ftoa_engine+0xfc>
    1edc:	06 94       	lsr	r0
    1ede:	97 95       	ror	r25
    1ee0:	67 95       	ror	r22
    1ee2:	37 95       	ror	r19
    1ee4:	17 95       	ror	r17
    1ee6:	17 94       	ror	r1
    1ee8:	e1 18       	sub	r14, r1
    1eea:	f1 0a       	sbc	r15, r17
    1eec:	43 0b       	sbc	r20, r19
    1eee:	56 0b       	sbc	r21, r22
    1ef0:	c9 0b       	sbc	r28, r25
    1ef2:	d0 09       	sbc	r29, r0
    1ef4:	98 f0       	brcs	.+38     	; 0x1f1c <__ftoa_engine+0x19a>
    1ef6:	23 95       	inc	r18
    1ef8:	7e 91       	ld	r23, -X
    1efa:	73 95       	inc	r23
    1efc:	7a 33       	cpi	r23, 0x3A	; 58
    1efe:	08 f0       	brcs	.+2      	; 0x1f02 <__ftoa_engine+0x180>
    1f00:	70 e3       	ldi	r23, 0x30	; 48
    1f02:	7c 93       	st	X, r23
    1f04:	20 13       	cpse	r18, r16
    1f06:	b8 f7       	brcc	.-18     	; 0x1ef6 <__ftoa_engine+0x174>
    1f08:	7e 91       	ld	r23, -X
    1f0a:	70 61       	ori	r23, 0x10	; 16
    1f0c:	7d 93       	st	X+, r23
    1f0e:	30 f0       	brcs	.+12     	; 0x1f1c <__ftoa_engine+0x19a>
    1f10:	83 95       	inc	r24
    1f12:	71 e3       	ldi	r23, 0x31	; 49
    1f14:	7d 93       	st	X+, r23
    1f16:	70 e3       	ldi	r23, 0x30	; 48
    1f18:	2a 95       	dec	r18
    1f1a:	e1 f7       	brne	.-8      	; 0x1f14 <__ftoa_engine+0x192>
    1f1c:	11 24       	eor	r1, r1
    1f1e:	ef 90       	pop	r14
    1f20:	ff 90       	pop	r15
    1f22:	0f 91       	pop	r16
    1f24:	1f 91       	pop	r17
    1f26:	cf 91       	pop	r28
    1f28:	df 91       	pop	r29
    1f2a:	99 27       	eor	r25, r25
    1f2c:	87 fd       	sbrc	r24, 7
    1f2e:	90 95       	com	r25
    1f30:	08 95       	ret

00001f32 <strnlen_P>:
    1f32:	fc 01       	movw	r30, r24
    1f34:	05 90       	lpm	r0, Z+
    1f36:	61 50       	subi	r22, 0x01	; 1
    1f38:	70 40       	sbci	r23, 0x00	; 0
    1f3a:	01 10       	cpse	r0, r1
    1f3c:	d8 f7       	brcc	.-10     	; 0x1f34 <strnlen_P+0x2>
    1f3e:	80 95       	com	r24
    1f40:	90 95       	com	r25
    1f42:	8e 0f       	add	r24, r30
    1f44:	9f 1f       	adc	r25, r31
    1f46:	08 95       	ret

00001f48 <memset>:
    1f48:	dc 01       	movw	r26, r24
    1f4a:	01 c0       	rjmp	.+2      	; 0x1f4e <memset+0x6>
    1f4c:	6d 93       	st	X+, r22
    1f4e:	41 50       	subi	r20, 0x01	; 1
    1f50:	50 40       	sbci	r21, 0x00	; 0
    1f52:	e0 f7       	brcc	.-8      	; 0x1f4c <memset+0x4>
    1f54:	08 95       	ret

00001f56 <strnlen>:
    1f56:	fc 01       	movw	r30, r24
    1f58:	61 50       	subi	r22, 0x01	; 1
    1f5a:	70 40       	sbci	r23, 0x00	; 0
    1f5c:	01 90       	ld	r0, Z+
    1f5e:	01 10       	cpse	r0, r1
    1f60:	d8 f7       	brcc	.-10     	; 0x1f58 <strnlen+0x2>
    1f62:	80 95       	com	r24
    1f64:	90 95       	com	r25
    1f66:	8e 0f       	add	r24, r30
    1f68:	9f 1f       	adc	r25, r31
    1f6a:	08 95       	ret

00001f6c <fputc>:
    1f6c:	0f 93       	push	r16
    1f6e:	1f 93       	push	r17
    1f70:	cf 93       	push	r28
    1f72:	df 93       	push	r29
    1f74:	fb 01       	movw	r30, r22
    1f76:	23 81       	ldd	r18, Z+3	; 0x03
    1f78:	21 fd       	sbrc	r18, 1
    1f7a:	03 c0       	rjmp	.+6      	; 0x1f82 <fputc+0x16>
    1f7c:	8f ef       	ldi	r24, 0xFF	; 255
    1f7e:	9f ef       	ldi	r25, 0xFF	; 255
    1f80:	28 c0       	rjmp	.+80     	; 0x1fd2 <fputc+0x66>
    1f82:	22 ff       	sbrs	r18, 2
    1f84:	16 c0       	rjmp	.+44     	; 0x1fb2 <fputc+0x46>
    1f86:	46 81       	ldd	r20, Z+6	; 0x06
    1f88:	57 81       	ldd	r21, Z+7	; 0x07
    1f8a:	24 81       	ldd	r18, Z+4	; 0x04
    1f8c:	35 81       	ldd	r19, Z+5	; 0x05
    1f8e:	42 17       	cp	r20, r18
    1f90:	53 07       	cpc	r21, r19
    1f92:	44 f4       	brge	.+16     	; 0x1fa4 <fputc+0x38>
    1f94:	a0 81       	ld	r26, Z
    1f96:	b1 81       	ldd	r27, Z+1	; 0x01
    1f98:	9d 01       	movw	r18, r26
    1f9a:	2f 5f       	subi	r18, 0xFF	; 255
    1f9c:	3f 4f       	sbci	r19, 0xFF	; 255
    1f9e:	31 83       	std	Z+1, r19	; 0x01
    1fa0:	20 83       	st	Z, r18
    1fa2:	8c 93       	st	X, r24
    1fa4:	26 81       	ldd	r18, Z+6	; 0x06
    1fa6:	37 81       	ldd	r19, Z+7	; 0x07
    1fa8:	2f 5f       	subi	r18, 0xFF	; 255
    1faa:	3f 4f       	sbci	r19, 0xFF	; 255
    1fac:	37 83       	std	Z+7, r19	; 0x07
    1fae:	26 83       	std	Z+6, r18	; 0x06
    1fb0:	10 c0       	rjmp	.+32     	; 0x1fd2 <fputc+0x66>
    1fb2:	eb 01       	movw	r28, r22
    1fb4:	09 2f       	mov	r16, r25
    1fb6:	18 2f       	mov	r17, r24
    1fb8:	00 84       	ldd	r0, Z+8	; 0x08
    1fba:	f1 85       	ldd	r31, Z+9	; 0x09
    1fbc:	e0 2d       	mov	r30, r0
    1fbe:	09 95       	icall
    1fc0:	89 2b       	or	r24, r25
    1fc2:	e1 f6       	brne	.-72     	; 0x1f7c <fputc+0x10>
    1fc4:	8e 81       	ldd	r24, Y+6	; 0x06
    1fc6:	9f 81       	ldd	r25, Y+7	; 0x07
    1fc8:	01 96       	adiw	r24, 0x01	; 1
    1fca:	9f 83       	std	Y+7, r25	; 0x07
    1fcc:	8e 83       	std	Y+6, r24	; 0x06
    1fce:	81 2f       	mov	r24, r17
    1fd0:	90 2f       	mov	r25, r16
    1fd2:	df 91       	pop	r29
    1fd4:	cf 91       	pop	r28
    1fd6:	1f 91       	pop	r17
    1fd8:	0f 91       	pop	r16
    1fda:	08 95       	ret

00001fdc <sprintf>:
    1fdc:	ae e0       	ldi	r26, 0x0E	; 14
    1fde:	b0 e0       	ldi	r27, 0x00	; 0
    1fe0:	e4 ef       	ldi	r30, 0xF4	; 244
    1fe2:	ff e0       	ldi	r31, 0x0F	; 15
    1fe4:	0c 94 1e 0d 	jmp	0x1a3c	; 0x1a3c <__prologue_saves__+0x1c>
    1fe8:	0d 89       	ldd	r16, Y+21	; 0x15
    1fea:	1e 89       	ldd	r17, Y+22	; 0x16
    1fec:	86 e0       	ldi	r24, 0x06	; 6
    1fee:	8c 83       	std	Y+4, r24	; 0x04
    1ff0:	1a 83       	std	Y+2, r17	; 0x02
    1ff2:	09 83       	std	Y+1, r16	; 0x01
    1ff4:	8f ef       	ldi	r24, 0xFF	; 255
    1ff6:	9f e7       	ldi	r25, 0x7F	; 127
    1ff8:	9e 83       	std	Y+6, r25	; 0x06
    1ffa:	8d 83       	std	Y+5, r24	; 0x05
    1ffc:	ae 01       	movw	r20, r28
    1ffe:	47 5e       	subi	r20, 0xE7	; 231
    2000:	5f 4f       	sbci	r21, 0xFF	; 255
    2002:	6f 89       	ldd	r22, Y+23	; 0x17
    2004:	78 8d       	ldd	r23, Y+24	; 0x18
    2006:	ce 01       	movw	r24, r28
    2008:	01 96       	adiw	r24, 0x01	; 1
    200a:	0e 94 52 09 	call	0x12a4	; 0x12a4 <vfprintf>
    200e:	2f 81       	ldd	r18, Y+7	; 0x07
    2010:	38 85       	ldd	r19, Y+8	; 0x08
    2012:	f8 01       	movw	r30, r16
    2014:	e2 0f       	add	r30, r18
    2016:	f3 1f       	adc	r31, r19
    2018:	10 82       	st	Z, r1
    201a:	2e 96       	adiw	r28, 0x0e	; 14
    201c:	e4 e0       	ldi	r30, 0x04	; 4
    201e:	0c 94 3a 0d 	jmp	0x1a74	; 0x1a74 <__epilogue_restores__+0x1c>

00002022 <__ultoa_invert>:
    2022:	fa 01       	movw	r30, r20
    2024:	aa 27       	eor	r26, r26
    2026:	28 30       	cpi	r18, 0x08	; 8
    2028:	51 f1       	breq	.+84     	; 0x207e <__ultoa_invert+0x5c>
    202a:	20 31       	cpi	r18, 0x10	; 16
    202c:	81 f1       	breq	.+96     	; 0x208e <__ultoa_invert+0x6c>
    202e:	e8 94       	clt
    2030:	6f 93       	push	r22
    2032:	6e 7f       	andi	r22, 0xFE	; 254
    2034:	6e 5f       	subi	r22, 0xFE	; 254
    2036:	7f 4f       	sbci	r23, 0xFF	; 255
    2038:	8f 4f       	sbci	r24, 0xFF	; 255
    203a:	9f 4f       	sbci	r25, 0xFF	; 255
    203c:	af 4f       	sbci	r26, 0xFF	; 255
    203e:	b1 e0       	ldi	r27, 0x01	; 1
    2040:	3e d0       	rcall	.+124    	; 0x20be <__ultoa_invert+0x9c>
    2042:	b4 e0       	ldi	r27, 0x04	; 4
    2044:	3c d0       	rcall	.+120    	; 0x20be <__ultoa_invert+0x9c>
    2046:	67 0f       	add	r22, r23
    2048:	78 1f       	adc	r23, r24
    204a:	89 1f       	adc	r24, r25
    204c:	9a 1f       	adc	r25, r26
    204e:	a1 1d       	adc	r26, r1
    2050:	68 0f       	add	r22, r24
    2052:	79 1f       	adc	r23, r25
    2054:	8a 1f       	adc	r24, r26
    2056:	91 1d       	adc	r25, r1
    2058:	a1 1d       	adc	r26, r1
    205a:	6a 0f       	add	r22, r26
    205c:	71 1d       	adc	r23, r1
    205e:	81 1d       	adc	r24, r1
    2060:	91 1d       	adc	r25, r1
    2062:	a1 1d       	adc	r26, r1
    2064:	20 d0       	rcall	.+64     	; 0x20a6 <__ultoa_invert+0x84>
    2066:	09 f4       	brne	.+2      	; 0x206a <__ultoa_invert+0x48>
    2068:	68 94       	set
    206a:	3f 91       	pop	r19
    206c:	2a e0       	ldi	r18, 0x0A	; 10
    206e:	26 9f       	mul	r18, r22
    2070:	11 24       	eor	r1, r1
    2072:	30 19       	sub	r19, r0
    2074:	30 5d       	subi	r19, 0xD0	; 208
    2076:	31 93       	st	Z+, r19
    2078:	de f6       	brtc	.-74     	; 0x2030 <__ultoa_invert+0xe>
    207a:	cf 01       	movw	r24, r30
    207c:	08 95       	ret
    207e:	46 2f       	mov	r20, r22
    2080:	47 70       	andi	r20, 0x07	; 7
    2082:	40 5d       	subi	r20, 0xD0	; 208
    2084:	41 93       	st	Z+, r20
    2086:	b3 e0       	ldi	r27, 0x03	; 3
    2088:	0f d0       	rcall	.+30     	; 0x20a8 <__ultoa_invert+0x86>
    208a:	c9 f7       	brne	.-14     	; 0x207e <__ultoa_invert+0x5c>
    208c:	f6 cf       	rjmp	.-20     	; 0x207a <__ultoa_invert+0x58>
    208e:	46 2f       	mov	r20, r22
    2090:	4f 70       	andi	r20, 0x0F	; 15
    2092:	40 5d       	subi	r20, 0xD0	; 208
    2094:	4a 33       	cpi	r20, 0x3A	; 58
    2096:	18 f0       	brcs	.+6      	; 0x209e <__ultoa_invert+0x7c>
    2098:	49 5d       	subi	r20, 0xD9	; 217
    209a:	31 fd       	sbrc	r19, 1
    209c:	40 52       	subi	r20, 0x20	; 32
    209e:	41 93       	st	Z+, r20
    20a0:	02 d0       	rcall	.+4      	; 0x20a6 <__ultoa_invert+0x84>
    20a2:	a9 f7       	brne	.-22     	; 0x208e <__ultoa_invert+0x6c>
    20a4:	ea cf       	rjmp	.-44     	; 0x207a <__ultoa_invert+0x58>
    20a6:	b4 e0       	ldi	r27, 0x04	; 4
    20a8:	a6 95       	lsr	r26
    20aa:	97 95       	ror	r25
    20ac:	87 95       	ror	r24
    20ae:	77 95       	ror	r23
    20b0:	67 95       	ror	r22
    20b2:	ba 95       	dec	r27
    20b4:	c9 f7       	brne	.-14     	; 0x20a8 <__ultoa_invert+0x86>
    20b6:	00 97       	sbiw	r24, 0x00	; 0
    20b8:	61 05       	cpc	r22, r1
    20ba:	71 05       	cpc	r23, r1
    20bc:	08 95       	ret
    20be:	9b 01       	movw	r18, r22
    20c0:	ac 01       	movw	r20, r24
    20c2:	0a 2e       	mov	r0, r26
    20c4:	06 94       	lsr	r0
    20c6:	57 95       	ror	r21
    20c8:	47 95       	ror	r20
    20ca:	37 95       	ror	r19
    20cc:	27 95       	ror	r18
    20ce:	ba 95       	dec	r27
    20d0:	c9 f7       	brne	.-14     	; 0x20c4 <__ultoa_invert+0xa2>
    20d2:	62 0f       	add	r22, r18
    20d4:	73 1f       	adc	r23, r19
    20d6:	84 1f       	adc	r24, r20
    20d8:	95 1f       	adc	r25, r21
    20da:	a0 1d       	adc	r26, r0
    20dc:	08 95       	ret

000020de <_exit>:
    20de:	f8 94       	cli

000020e0 <__stop_program>:
    20e0:	ff cf       	rjmp	.-2      	; 0x20e0 <__stop_program>
