
mpu6050_hmc5883_print.elf:     file format elf32-avr

Sections:
Idx Name          Size      VMA       LMA       File off  Algn
  0 .data         00000028  00800100  0000272a  0000279e  2**0
                  CONTENTS, ALLOC, LOAD, DATA
  1 .text         0000272a  00000000  00000000  00000074  2**1
                  CONTENTS, ALLOC, LOAD, READONLY, CODE
  2 .comment      0000005c  00000000  00000000  000027c6  2**0
                  CONTENTS, READONLY
  3 .note.gnu.avr.deviceinfo 00000040  00000000  00000000  00002824  2**2
                  CONTENTS, READONLY
  4 .debug_aranges 000000d8  00000000  00000000  00002864  2**0
                  CONTENTS, READONLY, DEBUGGING
  5 .debug_info   00001d51  00000000  00000000  0000293c  2**0
                  CONTENTS, READONLY, DEBUGGING
  6 .debug_abbrev 00000924  00000000  00000000  0000468d  2**0
                  CONTENTS, READONLY, DEBUGGING
  7 .debug_line   00000abb  00000000  00000000  00004fb1  2**0
                  CONTENTS, READONLY, DEBUGGING
  8 .debug_frame  00000328  00000000  00000000  00005a6c  2**2
                  CONTENTS, READONLY, DEBUGGING
  9 .debug_str    000006b5  00000000  00000000  00005d94  2**0
                  CONTENTS, READONLY, DEBUGGING
 10 .debug_loc    000019d8  00000000  00000000  00006449  2**0
                  CONTENTS, READONLY, DEBUGGING
 11 .debug_ranges 000000c8  00000000  00000000  00007e21  2**0
                  CONTENTS, READONLY, DEBUGGING

Disassembly of section .text:

00000000 <__vectors>:
       0:	0c 94 db 00 	jmp	0x1b6	; 0x1b6 <__ctors_end>
       4:	0c 94 f0 00 	jmp	0x1e0	; 0x1e0 <__bad_interrupt>
       8:	0c 94 f0 00 	jmp	0x1e0	; 0x1e0 <__bad_interrupt>
       c:	0c 94 f0 00 	jmp	0x1e0	; 0x1e0 <__bad_interrupt>
      10:	0c 94 f0 00 	jmp	0x1e0	; 0x1e0 <__bad_interrupt>
      14:	0c 94 f0 00 	jmp	0x1e0	; 0x1e0 <__bad_interrupt>
      18:	0c 94 f0 00 	jmp	0x1e0	; 0x1e0 <__bad_interrupt>
      1c:	0c 94 f0 00 	jmp	0x1e0	; 0x1e0 <__bad_interrupt>
      20:	0c 94 f0 00 	jmp	0x1e0	; 0x1e0 <__bad_interrupt>
      24:	0c 94 f0 00 	jmp	0x1e0	; 0x1e0 <__bad_interrupt>
      28:	0c 94 f0 00 	jmp	0x1e0	; 0x1e0 <__bad_interrupt>
      2c:	0c 94 f0 00 	jmp	0x1e0	; 0x1e0 <__bad_interrupt>
      30:	0c 94 f0 00 	jmp	0x1e0	; 0x1e0 <__bad_interrupt>
      34:	0c 94 f0 00 	jmp	0x1e0	; 0x1e0 <__bad_interrupt>
      38:	0c 94 f0 00 	jmp	0x1e0	; 0x1e0 <__bad_interrupt>
      3c:	0c 94 f0 00 	jmp	0x1e0	; 0x1e0 <__bad_interrupt>
      40:	0c 94 f0 00 	jmp	0x1e0	; 0x1e0 <__bad_interrupt>
      44:	0c 94 f0 00 	jmp	0x1e0	; 0x1e0 <__bad_interrupt>
      48:	0c 94 f0 00 	jmp	0x1e0	; 0x1e0 <__bad_interrupt>
      4c:	0c 94 f0 00 	jmp	0x1e0	; 0x1e0 <__bad_interrupt>
      50:	0c 94 f0 00 	jmp	0x1e0	; 0x1e0 <__bad_interrupt>
      54:	0c 94 f0 00 	jmp	0x1e0	; 0x1e0 <__bad_interrupt>
      58:	0c 94 f0 00 	jmp	0x1e0	; 0x1e0 <__bad_interrupt>
      5c:	0c 94 f0 00 	jmp	0x1e0	; 0x1e0 <__bad_interrupt>
      60:	0c 94 f0 00 	jmp	0x1e0	; 0x1e0 <__bad_interrupt>
      64:	0c 94 f0 00 	jmp	0x1e0	; 0x1e0 <__bad_interrupt>
      68:	08 4a       	sbci	r16, 0xA8	; 168
      6a:	d7 3b       	cpi	r29, 0xB7	; 183
      6c:	3b ce       	rjmp	.-906    	; 0xfffffce4 <__eeprom_end+0xff7efce4>
      6e:	01 6e       	ori	r16, 0xE1	; 225
      70:	84 bc       	out	0x24, r8	; 36
      72:	bf fd       	.word	0xfdbf	; ????
      74:	c1 2f       	mov	r28, r17
      76:	3d 6c       	ori	r19, 0xCD	; 205
      78:	74 31       	cpi	r23, 0x14	; 20
      7a:	9a bd       	out	0x2a, r25	; 42
      7c:	56 83       	std	Z+6, r21	; 0x06
      7e:	3d da       	rcall	.-2950   	; 0xfffff4fa <__eeprom_end+0xff7ef4fa>
      80:	3d 00       	.word	0x003d	; ????
      82:	c7 7f       	andi	r28, 0xF7	; 247
      84:	11 be       	out	0x31, r1	; 49
      86:	d9 e4       	ldi	r29, 0x49	; 73
      88:	bb 4c       	sbci	r27, 0xCB	; 203
      8a:	3e 91       	ld	r19, -X
      8c:	6b aa       	std	Y+51, r6	; 0x33
      8e:	aa be       	out	0x3a, r10	; 58
      90:	00 00       	nop
      92:	00 80       	ld	r0, Z
      94:	3f 05       	cpc	r19, r15
      96:	a8 4c       	sbci	r26, 0xC8	; 200
      98:	cd b2       	in	r12, 0x1d	; 29
      9a:	d4 4e       	sbci	r29, 0xE4	; 228
      9c:	b9 38       	cpi	r27, 0x89	; 137
      9e:	36 a9       	ldd	r19, Z+54	; 0x36
      a0:	02 0c       	add	r0, r2
      a2:	50 b9       	out	0x00, r21	; 0
      a4:	91 86       	std	Z+9, r9	; 0x09
      a6:	88 08       	sbc	r8, r8
      a8:	3c a6       	std	Y+44, r3	; 0x2c
      aa:	aa aa       	std	Y+50, r10	; 0x32
      ac:	2a be       	out	0x3a, r2	; 58
      ae:	00 00       	nop
      b0:	00 80       	ld	r0, Z
      b2:	3f 00       	.word	0x003f	; ????

000000b4 <__trampolines_end>:
      b4:	6e 61       	ori	r22, 0x1E	; 30
      b6:	6e 00       	.word	0x006e	; ????

000000b8 <__c.2240>:
      b8:	69 6e 66 00 00 40 7a 10 f3 5a 00 a0 72 4e 18 09     inf..@z..Z..rN..
      c8:	00 10 a5 d4 e8 00 00 e8 76 48 17 00 00 e4 0b 54     ........vH.....T
      d8:	02 00 00 ca 9a 3b 00 00 00 e1 f5 05 00 00 80 96     .....;..........
      e8:	98 00 00 00 40 42 0f 00 00 00 a0 86 01 00 00 00     ....@B..........
      f8:	10 27 00 00 00 00 e8 03 00 00 00 00 64 00 00 00     .'..........d...
     108:	00 00 0a 00 00 00 00 00 01 00 00 00 00 00 2c 76     ..............,v
     118:	d8 88 dc 67 4f 08 23 df c1 df ae 59 e1 b1 b7 96     ...gO.#....Y....
     128:	e5 e3 e4 53 c6 3a e6 51 99 76 96 e8 e6 c2 84 26     ...S.:.Q.v.....&
     138:	eb 89 8c 9b 62 ed 40 7c 6f fc ef bc 9c 9f 40 f2     ....b.@|o.....@.
     148:	ba a5 6f a5 f4 90 05 5a 2a f7 5c 93 6b 6c f9 67     ..o....Z*.\.kl.g
     158:	6d c1 1b fc e0 e4 0d 47 fe f5 20 e6 b5 00 d0 ed     m......G.. .....
     168:	90 2e 03 00 94 35 77 05 00 80 84 1e 08 00 00 20     .....5w........ 
     178:	4e 0a 00 00 00 c8 0c 33 33 33 33 0f 98 6e 12 83     N......3333..n..
     188:	11 41 ef 8d 21 14 89 3b e6 55 16 cf fe e6 db 18     .A..!..;.U......
     198:	d1 84 4b 38 1b f7 7c 1d 90 1d a4 bb e4 24 20 32     ..K8..|......$ 2
     1a8:	84 72 5e 22 81 00 c9 f1 24 ec a1 e5 3d 27           .r^"....$...='

000001b6 <__ctors_end>:
     1b6:	11 24       	eor	r1, r1
     1b8:	1f be       	out	0x3f, r1	; 63
     1ba:	cf ef       	ldi	r28, 0xFF	; 255
     1bc:	d8 e0       	ldi	r29, 0x08	; 8
     1be:	de bf       	out	0x3e, r29	; 62
     1c0:	cd bf       	out	0x3d, r28	; 61

000001c2 <__do_copy_data>:
     1c2:	11 e0       	ldi	r17, 0x01	; 1
     1c4:	a0 e0       	ldi	r26, 0x00	; 0
     1c6:	b1 e0       	ldi	r27, 0x01	; 1
     1c8:	ea e2       	ldi	r30, 0x2A	; 42
     1ca:	f7 e2       	ldi	r31, 0x27	; 39
     1cc:	02 c0       	rjmp	.+4      	; 0x1d2 <__do_copy_data+0x10>
     1ce:	05 90       	lpm	r0, Z+
     1d0:	0d 92       	st	X+, r0
     1d2:	a8 32       	cpi	r26, 0x28	; 40
     1d4:	b1 07       	cpc	r27, r17
     1d6:	d9 f7       	brne	.-10     	; 0x1ce <__do_copy_data+0xc>
     1d8:	0e 94 c6 04 	call	0x98c	; 0x98c <main>
     1dc:	0c 94 93 13 	jmp	0x2726	; 0x2726 <_exit>

000001e0 <__bad_interrupt>:
     1e0:	0c 94 00 00 	jmp	0	; 0x0 <__vectors>

000001e4 <KalmanFilter.1987>:

uint8_t I2C_GetStatus(void){//Ler status TWI
	uint8_t status;
	status = TWSR & 0xF8;
	return status;
}
     1e4:	2f 92       	push	r2
     1e6:	3f 92       	push	r3
     1e8:	4f 92       	push	r4
     1ea:	5f 92       	push	r5
     1ec:	6f 92       	push	r6
     1ee:	7f 92       	push	r7
     1f0:	8f 92       	push	r8
     1f2:	9f 92       	push	r9
     1f4:	af 92       	push	r10
     1f6:	bf 92       	push	r11
     1f8:	cf 92       	push	r12
     1fa:	df 92       	push	r13
     1fc:	ef 92       	push	r14
     1fe:	ff 92       	push	r15
     200:	0f 93       	push	r16
     202:	1f 93       	push	r17
     204:	cf 93       	push	r28
     206:	df 93       	push	r29
     208:	cd b7       	in	r28, 0x3d	; 61
     20a:	de b7       	in	r29, 0x3e	; 62
     20c:	6c 97       	sbiw	r28, 0x1c	; 28
     20e:	0f b6       	in	r0, 0x3f	; 63
     210:	f8 94       	cli
     212:	de bf       	out	0x3e, r29	; 62
     214:	0f be       	out	0x3f, r0	; 63
     216:	cd bf       	out	0x3d, r28	; 61
     218:	3c 01       	movw	r6, r24
     21a:	49 8f       	std	Y+25, r20	; 0x19
     21c:	5a 8f       	std	Y+26, r21	; 0x1a
     21e:	6b 8f       	std	Y+27, r22	; 0x1b
     220:	7c 8f       	std	Y+28, r23	; 0x1c
     222:	c9 01       	movw	r24, r18
     224:	b8 01       	movw	r22, r16
     226:	d1 01       	movw	r26, r2
     228:	1c 96       	adiw	r26, 0x0c	; 12
     22a:	2d 91       	ld	r18, X+
     22c:	3d 91       	ld	r19, X+
     22e:	4d 91       	ld	r20, X+
     230:	5c 91       	ld	r21, X
     232:	1f 97       	sbiw	r26, 0x0f	; 15
     234:	29 87       	std	Y+9, r18	; 0x09
     236:	3a 87       	std	Y+10, r19	; 0x0a
     238:	4b 87       	std	Y+11, r20	; 0x0b
     23a:	5c 87       	std	Y+12, r21	; 0x0c
     23c:	a7 01       	movw	r20, r14
     23e:	96 01       	movw	r18, r12
     240:	0e 94 95 0a 	call	0x152a	; 0x152a <__subsf3>
     244:	29 85       	ldd	r18, Y+9	; 0x09
     246:	3a 85       	ldd	r19, Y+10	; 0x0a
     248:	4b 85       	ldd	r20, Y+11	; 0x0b
     24a:	5c 85       	ldd	r21, Y+12	; 0x0c
     24c:	0e 94 10 0d 	call	0x1a20	; 0x1a20 <__mulsf3>
     250:	20 e0       	ldi	r18, 0x00	; 0
     252:	30 e0       	ldi	r19, 0x00	; 0
     254:	a9 01       	movw	r20, r18
     256:	0e 94 96 0a 	call	0x152c	; 0x152c <__addsf3>
     25a:	6d 8b       	std	Y+21, r22	; 0x15
     25c:	7e 8b       	std	Y+22, r23	; 0x16
     25e:	8f 8b       	std	Y+23, r24	; 0x17
     260:	98 8f       	std	Y+24, r25	; 0x18
     262:	29 85       	ldd	r18, Y+9	; 0x09
     264:	3a 85       	ldd	r19, Y+10	; 0x0a
     266:	4b 85       	ldd	r20, Y+11	; 0x0b
     268:	5c 85       	ldd	r21, Y+12	; 0x0c
     26a:	50 58       	subi	r21, 0x80	; 128
     26c:	2d 83       	std	Y+5, r18	; 0x05
     26e:	3e 83       	std	Y+6, r19	; 0x06
     270:	4f 83       	std	Y+7, r20	; 0x07
     272:	58 87       	std	Y+8, r21	; 0x08
     274:	29 a9       	ldd	r18, Y+49	; 0x31
     276:	3a a9       	ldd	r19, Y+50	; 0x32
     278:	4b a9       	ldd	r20, Y+51	; 0x33
     27a:	5c a9       	ldd	r21, Y+52	; 0x34
     27c:	6d a9       	ldd	r22, Y+53	; 0x35
     27e:	7e a9       	ldd	r23, Y+54	; 0x36
     280:	8f a9       	ldd	r24, Y+55	; 0x37
     282:	98 ad       	ldd	r25, Y+56	; 0x38
     284:	0e 94 96 0a 	call	0x152c	; 0x152c <__addsf3>
     288:	9b 01       	movw	r18, r22
     28a:	ac 01       	movw	r20, r24
     28c:	6d 81       	ldd	r22, Y+5	; 0x05
     28e:	7e 81       	ldd	r23, Y+6	; 0x06
     290:	8f 81       	ldd	r24, Y+7	; 0x07
     292:	98 85       	ldd	r25, Y+8	; 0x08
     294:	0e 94 10 0d 	call	0x1a20	; 0x1a20 <__mulsf3>
     298:	69 83       	std	Y+1, r22	; 0x01
     29a:	7a 83       	std	Y+2, r23	; 0x02
     29c:	8b 83       	std	Y+3, r24	; 0x03
     29e:	9c 83       	std	Y+4, r25	; 0x04
     2a0:	69 85       	ldd	r22, Y+9	; 0x09
     2a2:	7a 85       	ldd	r23, Y+10	; 0x0a
     2a4:	8b 85       	ldd	r24, Y+11	; 0x0b
     2a6:	9c 85       	ldd	r25, Y+12	; 0x0c
     2a8:	0e 94 cb 0d 	call	0x1b96	; 0x1b96 <square>
     2ac:	29 ad       	ldd	r18, Y+57	; 0x39
     2ae:	3a ad       	ldd	r19, Y+58	; 0x3a
     2b0:	4b ad       	ldd	r20, Y+59	; 0x3b
     2b2:	5c ad       	ldd	r21, Y+60	; 0x3c
     2b4:	0e 94 10 0d 	call	0x1a20	; 0x1a20 <__mulsf3>
     2b8:	69 8b       	std	Y+17, r22	; 0x11
     2ba:	7a 8b       	std	Y+18, r23	; 0x12
     2bc:	8b 8b       	std	Y+19, r24	; 0x13
     2be:	9c 8b       	std	Y+20, r25	; 0x14
     2c0:	d1 01       	movw	r26, r2
     2c2:	18 96       	adiw	r26, 0x08	; 8
     2c4:	6d 91       	ld	r22, X+
     2c6:	7d 91       	ld	r23, X+
     2c8:	8d 91       	ld	r24, X+
     2ca:	9c 91       	ld	r25, X
     2cc:	1b 97       	sbiw	r26, 0x0b	; 11
     2ce:	0e 94 cb 0d 	call	0x1b96	; 0x1b96 <square>
     2d2:	9b 01       	movw	r18, r22
     2d4:	ac 01       	movw	r20, r24
     2d6:	69 89       	ldd	r22, Y+17	; 0x11
     2d8:	7a 89       	ldd	r23, Y+18	; 0x12
     2da:	8b 89       	ldd	r24, Y+19	; 0x13
     2dc:	9c 89       	ldd	r25, Y+20	; 0x14
     2de:	0e 94 10 0d 	call	0x1a20	; 0x1a20 <__mulsf3>
     2e2:	9b 01       	movw	r18, r22
     2e4:	ac 01       	movw	r20, r24
     2e6:	69 81       	ldd	r22, Y+1	; 0x01
     2e8:	7a 81       	ldd	r23, Y+2	; 0x02
     2ea:	8b 81       	ldd	r24, Y+3	; 0x03
     2ec:	9c 81       	ldd	r25, Y+4	; 0x04
     2ee:	0e 94 96 0a 	call	0x152c	; 0x152c <__addsf3>
     2f2:	a5 01       	movw	r20, r10
     2f4:	94 01       	movw	r18, r8
     2f6:	0e 94 96 0a 	call	0x152c	; 0x152c <__addsf3>
     2fa:	69 83       	std	Y+1, r22	; 0x01
     2fc:	7a 83       	std	Y+2, r23	; 0x02
     2fe:	8b 83       	std	Y+3, r24	; 0x03
     300:	9c 83       	std	Y+4, r25	; 0x04
     302:	29 ad       	ldd	r18, Y+57	; 0x39
     304:	3a ad       	ldd	r19, Y+58	; 0x3a
     306:	4b ad       	ldd	r20, Y+59	; 0x3b
     308:	5c ad       	ldd	r21, Y+60	; 0x3c
     30a:	6d 81       	ldd	r22, Y+5	; 0x05
     30c:	7e 81       	ldd	r23, Y+6	; 0x06
     30e:	8f 81       	ldd	r24, Y+7	; 0x07
     310:	98 85       	ldd	r25, Y+8	; 0x08
     312:	0e 94 10 0d 	call	0x1a20	; 0x1a20 <__mulsf3>
     316:	4b 01       	movw	r8, r22
     318:	5c 01       	movw	r10, r24
     31a:	29 a9       	ldd	r18, Y+49	; 0x31
     31c:	3a a9       	ldd	r19, Y+50	; 0x32
     31e:	4b a9       	ldd	r20, Y+51	; 0x33
     320:	5c a9       	ldd	r21, Y+52	; 0x34
     322:	0e 94 96 0a 	call	0x152c	; 0x152c <__addsf3>
     326:	69 8b       	std	Y+17, r22	; 0x11
     328:	7a 8b       	std	Y+18, r23	; 0x12
     32a:	8b 8b       	std	Y+19, r24	; 0x13
     32c:	9c 8b       	std	Y+20, r25	; 0x14
     32e:	a5 01       	movw	r20, r10
     330:	94 01       	movw	r18, r8
     332:	6d a9       	ldd	r22, Y+53	; 0x35
     334:	7e a9       	ldd	r23, Y+54	; 0x36
     336:	8f a9       	ldd	r24, Y+55	; 0x37
     338:	98 ad       	ldd	r25, Y+56	; 0x38
     33a:	0e 94 96 0a 	call	0x152c	; 0x152c <__addsf3>
     33e:	4b 01       	movw	r8, r22
     340:	5c 01       	movw	r10, r24
     342:	f1 01       	movw	r30, r2
     344:	64 81       	ldd	r22, Z+4	; 0x04
     346:	75 81       	ldd	r23, Z+5	; 0x05
     348:	86 81       	ldd	r24, Z+6	; 0x06
     34a:	97 81       	ldd	r25, Z+7	; 0x07
     34c:	0e 94 cb 0d 	call	0x1b96	; 0x1b96 <square>
     350:	6d 87       	std	Y+13, r22	; 0x0d
     352:	7e 87       	std	Y+14, r23	; 0x0e
     354:	8f 87       	std	Y+15, r24	; 0x0f
     356:	98 8b       	std	Y+16, r25	; 0x10
     358:	2d 89       	ldd	r18, Y+21	; 0x15
     35a:	3e 89       	ldd	r19, Y+22	; 0x16
     35c:	4f 89       	ldd	r20, Y+23	; 0x17
     35e:	58 8d       	ldd	r21, Y+24	; 0x18
     360:	69 8d       	ldd	r22, Y+25	; 0x19
     362:	7a 8d       	ldd	r23, Y+26	; 0x1a
     364:	8b 8d       	ldd	r24, Y+27	; 0x1b
     366:	9c 8d       	ldd	r25, Y+28	; 0x1c
     368:	0e 94 95 0a 	call	0x152a	; 0x152a <__subsf3>
     36c:	6d 83       	std	Y+5, r22	; 0x05
     36e:	7e 83       	std	Y+6, r23	; 0x06
     370:	8f 83       	std	Y+7, r24	; 0x07
     372:	98 87       	std	Y+8, r25	; 0x08
     374:	d1 01       	movw	r26, r2
     376:	2d 91       	ld	r18, X+
     378:	3d 91       	ld	r19, X+
     37a:	4d 91       	ld	r20, X+
     37c:	5c 91       	ld	r21, X
     37e:	69 81       	ldd	r22, Y+1	; 0x01
     380:	7a 81       	ldd	r23, Y+2	; 0x02
     382:	8b 81       	ldd	r24, Y+3	; 0x03
     384:	9c 81       	ldd	r25, Y+4	; 0x04
     386:	0e 94 96 0a 	call	0x152c	; 0x152c <__addsf3>
     38a:	1b 01       	movw	r2, r22
     38c:	2c 01       	movw	r4, r24
     38e:	9b 01       	movw	r18, r22
     390:	ac 01       	movw	r20, r24
     392:	69 81       	ldd	r22, Y+1	; 0x01
     394:	7a 81       	ldd	r23, Y+2	; 0x02
     396:	8b 81       	ldd	r24, Y+3	; 0x03
     398:	9c 81       	ldd	r25, Y+4	; 0x04
     39a:	0e 94 7e 0b 	call	0x16fc	; 0x16fc <__divsf3>
     39e:	2d 81       	ldd	r18, Y+5	; 0x05
     3a0:	3e 81       	ldd	r19, Y+6	; 0x06
     3a2:	4f 81       	ldd	r20, Y+7	; 0x07
     3a4:	58 85       	ldd	r21, Y+8	; 0x08
     3a6:	0e 94 10 0d 	call	0x1a20	; 0x1a20 <__mulsf3>
     3aa:	2d 89       	ldd	r18, Y+21	; 0x15
     3ac:	3e 89       	ldd	r19, Y+22	; 0x16
     3ae:	4f 89       	ldd	r20, Y+23	; 0x17
     3b0:	58 8d       	ldd	r21, Y+24	; 0x18
     3b2:	0e 94 96 0a 	call	0x152c	; 0x152c <__addsf3>
     3b6:	f3 01       	movw	r30, r6
     3b8:	60 83       	st	Z, r22
     3ba:	71 83       	std	Z+1, r23	; 0x01
     3bc:	82 83       	std	Z+2, r24	; 0x02
     3be:	93 83       	std	Z+3, r25	; 0x03
     3c0:	a2 01       	movw	r20, r4
     3c2:	91 01       	movw	r18, r2
     3c4:	c5 01       	movw	r24, r10
     3c6:	b4 01       	movw	r22, r8
     3c8:	0e 94 7e 0b 	call	0x16fc	; 0x16fc <__divsf3>
     3cc:	2d 81       	ldd	r18, Y+5	; 0x05
     3ce:	3e 81       	ldd	r19, Y+6	; 0x06
     3d0:	4f 81       	ldd	r20, Y+7	; 0x07
     3d2:	58 85       	ldd	r21, Y+8	; 0x08
     3d4:	0e 94 10 0d 	call	0x1a20	; 0x1a20 <__mulsf3>
     3d8:	a7 01       	movw	r20, r14
     3da:	96 01       	movw	r18, r12
     3dc:	0e 94 96 0a 	call	0x152c	; 0x152c <__addsf3>
     3e0:	d3 01       	movw	r26, r6
     3e2:	14 96       	adiw	r26, 0x04	; 4
     3e4:	6d 93       	st	X+, r22
     3e6:	7d 93       	st	X+, r23
     3e8:	8d 93       	st	X+, r24
     3ea:	9c 93       	st	X, r25
     3ec:	17 97       	sbiw	r26, 0x07	; 7
     3ee:	29 81       	ldd	r18, Y+1	; 0x01
     3f0:	3a 81       	ldd	r19, Y+2	; 0x02
     3f2:	4b 81       	ldd	r20, Y+3	; 0x03
     3f4:	5c 81       	ldd	r21, Y+4	; 0x04
     3f6:	18 96       	adiw	r26, 0x08	; 8
     3f8:	2d 93       	st	X+, r18
     3fa:	3d 93       	st	X+, r19
     3fc:	4d 93       	st	X+, r20
     3fe:	5c 93       	st	X, r21
     400:	1b 97       	sbiw	r26, 0x0b	; 11
     402:	29 89       	ldd	r18, Y+17	; 0x11
     404:	3a 89       	ldd	r19, Y+18	; 0x12
     406:	4b 89       	ldd	r20, Y+19	; 0x13
     408:	5c 89       	ldd	r21, Y+20	; 0x14
     40a:	1c 96       	adiw	r26, 0x0c	; 12
     40c:	2d 93       	st	X+, r18
     40e:	3d 93       	st	X+, r19
     410:	4d 93       	st	X+, r20
     412:	5c 93       	st	X, r21
     414:	1f 97       	sbiw	r26, 0x0f	; 15
     416:	f3 01       	movw	r30, r6
     418:	80 8a       	std	Z+16, r8	; 0x10
     41a:	91 8a       	std	Z+17, r9	; 0x11
     41c:	a2 8a       	std	Z+18, r10	; 0x12
     41e:	b3 8a       	std	Z+19, r11	; 0x13
     420:	2d 85       	ldd	r18, Y+13	; 0x0d
     422:	3e 85       	ldd	r19, Y+14	; 0x0e
     424:	4f 85       	ldd	r20, Y+15	; 0x0f
     426:	58 89       	ldd	r21, Y+16	; 0x10
     428:	69 85       	ldd	r22, Y+9	; 0x09
     42a:	7a 85       	ldd	r23, Y+10	; 0x0a
     42c:	8b 85       	ldd	r24, Y+11	; 0x0b
     42e:	9c 85       	ldd	r25, Y+12	; 0x0c
     430:	0e 94 10 0d 	call	0x1a20	; 0x1a20 <__mulsf3>
     434:	29 ad       	ldd	r18, Y+57	; 0x39
     436:	3a ad       	ldd	r19, Y+58	; 0x3a
     438:	4b ad       	ldd	r20, Y+59	; 0x3b
     43a:	5c ad       	ldd	r21, Y+60	; 0x3c
     43c:	0e 94 96 0a 	call	0x152c	; 0x152c <__addsf3>
     440:	d3 01       	movw	r26, r6
     442:	54 96       	adiw	r26, 0x14	; 20
     444:	6d 93       	st	X+, r22
     446:	7d 93       	st	X+, r23
     448:	8d 93       	st	X+, r24
     44a:	9c 93       	st	X, r25
     44c:	57 97       	sbiw	r26, 0x17	; 23
     44e:	c3 01       	movw	r24, r6
     450:	6c 96       	adiw	r28, 0x1c	; 28
     452:	0f b6       	in	r0, 0x3f	; 63
     454:	f8 94       	cli
     456:	de bf       	out	0x3e, r29	; 62
     458:	0f be       	out	0x3f, r0	; 63
     45a:	cd bf       	out	0x3d, r28	; 61
     45c:	df 91       	pop	r29
     45e:	cf 91       	pop	r28
     460:	1f 91       	pop	r17
     462:	0f 91       	pop	r16
     464:	ff 90       	pop	r15
     466:	ef 90       	pop	r14
     468:	df 90       	pop	r13
     46a:	cf 90       	pop	r12
     46c:	bf 90       	pop	r11
     46e:	af 90       	pop	r10
     470:	9f 90       	pop	r9
     472:	8f 90       	pop	r8
     474:	7f 90       	pop	r7
     476:	6f 90       	pop	r6
     478:	5f 90       	pop	r5
     47a:	4f 90       	pop	r4
     47c:	3f 90       	pop	r3
     47e:	2f 90       	pop	r2
     480:	08 95       	ret

00000482 <USART_CONFIG>:
     482:	80 e4       	ldi	r24, 0x40	; 64
     484:	80 93 c0 00 	sts	0x00C0, r24	; 0x8000c0 <__TEXT_REGION_LENGTH__+0x7e00c0>
     488:	88 e0       	ldi	r24, 0x08	; 8
     48a:	80 93 c1 00 	sts	0x00C1, r24	; 0x8000c1 <__TEXT_REGION_LENGTH__+0x7e00c1>
     48e:	86 e0       	ldi	r24, 0x06	; 6
     490:	80 93 c2 00 	sts	0x00C2, r24	; 0x8000c2 <__TEXT_REGION_LENGTH__+0x7e00c2>
     494:	87 e6       	ldi	r24, 0x67	; 103
     496:	80 93 c4 00 	sts	0x00C4, r24	; 0x8000c4 <__TEXT_REGION_LENGTH__+0x7e00c4>
     49a:	10 92 c5 00 	sts	0x00C5, r1	; 0x8000c5 <__TEXT_REGION_LENGTH__+0x7e00c5>
     49e:	08 95       	ret

000004a0 <USART_TRANSFER>:
     4a0:	e0 ec       	ldi	r30, 0xC0	; 192
     4a2:	f0 e0       	ldi	r31, 0x00	; 0
     4a4:	90 81       	ld	r25, Z
     4a6:	95 ff       	sbrs	r25, 5
     4a8:	fd cf       	rjmp	.-6      	; 0x4a4 <USART_TRANSFER+0x4>
     4aa:	80 93 c6 00 	sts	0x00C6, r24	; 0x8000c6 <__TEXT_REGION_LENGTH__+0x7e00c6>
     4ae:	08 95       	ret

000004b0 <USART_TRANSFER_STRING>:
     4b0:	cf 93       	push	r28
     4b2:	df 93       	push	r29
     4b4:	ec 01       	movw	r28, r24
     4b6:	88 81       	ld	r24, Y
     4b8:	88 23       	and	r24, r24
     4ba:	31 f0       	breq	.+12     	; 0x4c8 <USART_TRANSFER_STRING+0x18>
     4bc:	21 96       	adiw	r28, 0x01	; 1
     4be:	0e 94 50 02 	call	0x4a0	; 0x4a0 <USART_TRANSFER>
     4c2:	89 91       	ld	r24, Y+
     4c4:	81 11       	cpse	r24, r1
     4c6:	fb cf       	rjmp	.-10     	; 0x4be <USART_TRANSFER_STRING+0xe>
     4c8:	df 91       	pop	r29
     4ca:	cf 91       	pop	r28
     4cc:	08 95       	ret

000004ce <USART_TRANSFER_INT_HEX>:
     4ce:	cf 93       	push	r28
     4d0:	df 93       	push	r29
     4d2:	cd b7       	in	r28, 0x3d	; 61
     4d4:	de b7       	in	r29, 0x3e	; 62
     4d6:	64 97       	sbiw	r28, 0x14	; 20
     4d8:	0f b6       	in	r0, 0x3f	; 63
     4da:	f8 94       	cli
     4dc:	de bf       	out	0x3e, r29	; 62
     4de:	0f be       	out	0x3f, r0	; 63
     4e0:	cd bf       	out	0x3d, r28	; 61
     4e2:	ab 01       	movw	r20, r22
     4e4:	bc 01       	movw	r22, r24
     4e6:	fe 01       	movw	r30, r28
     4e8:	73 96       	adiw	r30, 0x13	; 19
     4ea:	22 e1       	ldi	r18, 0x12	; 18
     4ec:	30 e0       	ldi	r19, 0x00	; 0
     4ee:	84 2f       	mov	r24, r20
     4f0:	8f 70       	andi	r24, 0x0F	; 15
     4f2:	8a 30       	cpi	r24, 0x0A	; 10
     4f4:	18 f4       	brcc	.+6      	; 0x4fc <USART_TRANSFER_INT_HEX+0x2e>
     4f6:	80 5d       	subi	r24, 0xD0	; 208
     4f8:	80 83       	st	Z, r24
     4fa:	02 c0       	rjmp	.+4      	; 0x500 <USART_TRANSFER_INT_HEX+0x32>
     4fc:	89 5c       	subi	r24, 0xC9	; 201
     4fe:	80 83       	st	Z, r24
     500:	db 01       	movw	r26, r22
     502:	ca 01       	movw	r24, r20
     504:	77 23       	and	r23, r23
     506:	1c f4       	brge	.+6      	; 0x50e <USART_TRANSFER_INT_HEX+0x40>
     508:	0f 96       	adiw	r24, 0x0f	; 15
     50a:	a1 1d       	adc	r26, r1
     50c:	b1 1d       	adc	r27, r1
     50e:	ac 01       	movw	r20, r24
     510:	bd 01       	movw	r22, r26
     512:	68 94       	set
     514:	13 f8       	bld	r1, 3
     516:	75 95       	asr	r23
     518:	67 95       	ror	r22
     51a:	57 95       	ror	r21
     51c:	47 95       	ror	r20
     51e:	16 94       	lsr	r1
     520:	d1 f7       	brne	.-12     	; 0x516 <USART_TRANSFER_INT_HEX+0x48>
     522:	21 50       	subi	r18, 0x01	; 1
     524:	31 09       	sbc	r19, r1
     526:	41 15       	cp	r20, r1
     528:	51 05       	cpc	r21, r1
     52a:	61 05       	cpc	r22, r1
     52c:	71 05       	cpc	r23, r1
     52e:	21 f0       	breq	.+8      	; 0x538 <USART_TRANSFER_INT_HEX+0x6a>
     530:	31 97       	sbiw	r30, 0x01	; 1
     532:	21 30       	cpi	r18, 0x01	; 1
     534:	31 05       	cpc	r19, r1
     536:	d9 f6       	brne	.-74     	; 0x4ee <USART_TRANSFER_INT_HEX+0x20>
     538:	1c 8a       	std	Y+20, r1	; 0x14
     53a:	c9 01       	movw	r24, r18
     53c:	01 97       	sbiw	r24, 0x01	; 1
     53e:	e1 e0       	ldi	r30, 0x01	; 1
     540:	f0 e0       	ldi	r31, 0x00	; 0
     542:	ec 0f       	add	r30, r28
     544:	fd 1f       	adc	r31, r29
     546:	e2 0f       	add	r30, r18
     548:	f3 1f       	adc	r31, r19
     54a:	48 e7       	ldi	r20, 0x78	; 120
     54c:	40 83       	st	Z, r20
     54e:	21 e0       	ldi	r18, 0x01	; 1
     550:	30 e0       	ldi	r19, 0x00	; 0
     552:	2c 0f       	add	r18, r28
     554:	3d 1f       	adc	r19, r29
     556:	82 0f       	add	r24, r18
     558:	93 1f       	adc	r25, r19
     55a:	20 e3       	ldi	r18, 0x30	; 48
     55c:	fc 01       	movw	r30, r24
     55e:	20 83       	st	Z, r18
     560:	0e 94 58 02 	call	0x4b0	; 0x4b0 <USART_TRANSFER_STRING>
     564:	64 96       	adiw	r28, 0x14	; 20
     566:	0f b6       	in	r0, 0x3f	; 63
     568:	f8 94       	cli
     56a:	de bf       	out	0x3e, r29	; 62
     56c:	0f be       	out	0x3f, r0	; 63
     56e:	cd bf       	out	0x3d, r28	; 61
     570:	df 91       	pop	r29
     572:	cf 91       	pop	r28
     574:	08 95       	ret

00000576 <USART_TRANSFER_FLOAT>:
     576:	0f 93       	push	r16
     578:	1f 93       	push	r17
     57a:	cf 93       	push	r28
     57c:	df 93       	push	r29
     57e:	cd b7       	in	r28, 0x3d	; 61
     580:	de b7       	in	r29, 0x3e	; 62
     582:	64 97       	sbiw	r28, 0x14	; 20
     584:	0f b6       	in	r0, 0x3f	; 63
     586:	f8 94       	cli
     588:	de bf       	out	0x3e, r29	; 62
     58a:	0f be       	out	0x3f, r0	; 63
     58c:	cd bf       	out	0x3d, r28	; 61
     58e:	9f 93       	push	r25
     590:	8f 93       	push	r24
     592:	7f 93       	push	r23
     594:	6f 93       	push	r22
     596:	82 e0       	ldi	r24, 0x02	; 2
     598:	91 e0       	ldi	r25, 0x01	; 1
     59a:	9f 93       	push	r25
     59c:	8f 93       	push	r24
     59e:	8e 01       	movw	r16, r28
     5a0:	0f 5f       	subi	r16, 0xFF	; 255
     5a2:	1f 4f       	sbci	r17, 0xFF	; 255
     5a4:	1f 93       	push	r17
     5a6:	0f 93       	push	r16
     5a8:	0e 94 12 13 	call	0x2624	; 0x2624 <sprintf>
     5ac:	c8 01       	movw	r24, r16
     5ae:	0e 94 58 02 	call	0x4b0	; 0x4b0 <USART_TRANSFER_STRING>
     5b2:	0f b6       	in	r0, 0x3f	; 63
     5b4:	f8 94       	cli
     5b6:	de bf       	out	0x3e, r29	; 62
     5b8:	0f be       	out	0x3f, r0	; 63
     5ba:	cd bf       	out	0x3d, r28	; 61
     5bc:	64 96       	adiw	r28, 0x14	; 20
     5be:	0f b6       	in	r0, 0x3f	; 63
     5c0:	f8 94       	cli
     5c2:	de bf       	out	0x3e, r29	; 62
     5c4:	0f be       	out	0x3f, r0	; 63
     5c6:	cd bf       	out	0x3d, r28	; 61
     5c8:	df 91       	pop	r29
     5ca:	cf 91       	pop	r28
     5cc:	1f 91       	pop	r17
     5ce:	0f 91       	pop	r16
     5d0:	08 95       	ret

000005d2 <I2C_Inic>:

uint8_t I2C_Inic(void){
	//Clock TWI (SCL) em 400kHz
	TWSR = 0x00;
     5d2:	e9 eb       	ldi	r30, 0xB9	; 185
     5d4:	f0 e0       	ldi	r31, 0x00	; 0
     5d6:	10 82       	st	Z, r1
	TWBR = 0x0C;
     5d8:	8c e0       	ldi	r24, 0x0C	; 12
     5da:	80 93 b8 00 	sts	0x00B8, r24	; 0x8000b8 <__TEXT_REGION_LENGTH__+0x7e00b8>
	TWCR = (1<<TWEN); //Habilita TWI
     5de:	84 e0       	ldi	r24, 0x04	; 4
     5e0:	80 93 bc 00 	sts	0x00BC, r24	; 0x8000bc <__TEXT_REGION_LENGTH__+0x7e00bc>

#define I2C_STATUS_OK 0xF8

uint8_t I2C_GetStatus(void){//Ler status TWI
	uint8_t status;
	status = TWSR & 0xF8;
     5e4:	80 81       	ld	r24, Z
	//Clock TWI (SCL) em 400kHz
	TWSR = 0x00;
	TWBR = 0x0C;
	TWCR = (1<<TWEN); //Habilita TWI
	return I2C_GetStatus();
}
     5e6:	88 7f       	andi	r24, 0xF8	; 248
     5e8:	08 95       	ret

000005ea <I2C_Start>:

uint8_t I2C_Start(void){//Envia bit start
	TWCR = (1<<TWINT)|(1<<TWSTA)|(1<<TWEN);
     5ea:	84 ea       	ldi	r24, 0xA4	; 164
     5ec:	80 93 bc 00 	sts	0x00BC, r24	; 0x8000bc <__TEXT_REGION_LENGTH__+0x7e00bc>
	while((TWCR & (1<<TWINT)) == 0);
     5f0:	ec eb       	ldi	r30, 0xBC	; 188
     5f2:	f0 e0       	ldi	r31, 0x00	; 0
     5f4:	80 81       	ld	r24, Z
     5f6:	88 23       	and	r24, r24
     5f8:	ec f7       	brge	.-6      	; 0x5f4 <I2C_Start+0xa>

#define I2C_STATUS_OK 0xF8

uint8_t I2C_GetStatus(void){//Ler status TWI
	uint8_t status;
	status = TWSR & 0xF8;
     5fa:	80 91 b9 00 	lds	r24, 0x00B9	; 0x8000b9 <__TEXT_REGION_LENGTH__+0x7e00b9>

uint8_t I2C_Start(void){//Envia bit start
	TWCR = (1<<TWINT)|(1<<TWSTA)|(1<<TWEN);
	while((TWCR & (1<<TWINT)) == 0);
	return I2C_GetStatus();
}
     5fe:	88 7f       	andi	r24, 0xF8	; 248
     600:	08 95       	ret

00000602 <I2C_Stop>:

uint8_t I2C_Stop(void){//Envia bit stop
	TWCR = (1<<TWINT)|(1<<TWEN)|(1<<TWSTO);
     602:	84 e9       	ldi	r24, 0x94	; 148
     604:	80 93 bc 00 	sts	0x00BC, r24	; 0x8000bc <__TEXT_REGION_LENGTH__+0x7e00bc>

#define I2C_STATUS_OK 0xF8

uint8_t I2C_GetStatus(void){//Ler status TWI
	uint8_t status;
	status = TWSR & 0xF8;
     608:	80 91 b9 00 	lds	r24, 0x00B9	; 0x8000b9 <__TEXT_REGION_LENGTH__+0x7e00b9>
}

uint8_t I2C_Stop(void){//Envia bit stop
	TWCR = (1<<TWINT)|(1<<TWEN)|(1<<TWSTO);
	return I2C_GetStatus();
}
     60c:	88 7f       	andi	r24, 0xF8	; 248
     60e:	08 95       	ret

00000610 <I2C_Send>:
uint8_t I2C_Send(uint8_t u8data){//Envia dados
	TWDR = u8data;
     610:	80 93 bb 00 	sts	0x00BB, r24	; 0x8000bb <__TEXT_REGION_LENGTH__+0x7e00bb>
	TWCR = (1<<TWINT)|(1<<TWEN);
     614:	84 e8       	ldi	r24, 0x84	; 132
     616:	80 93 bc 00 	sts	0x00BC, r24	; 0x8000bc <__TEXT_REGION_LENGTH__+0x7e00bc>
	while((TWCR & (1<<TWINT))==0);
     61a:	ec eb       	ldi	r30, 0xBC	; 188
     61c:	f0 e0       	ldi	r31, 0x00	; 0
     61e:	80 81       	ld	r24, Z
     620:	88 23       	and	r24, r24
     622:	ec f7       	brge	.-6      	; 0x61e <I2C_Send+0xe>

#define I2C_STATUS_OK 0xF8

uint8_t I2C_GetStatus(void){//Ler status TWI
	uint8_t status;
	status = TWSR & 0xF8;
     624:	80 91 b9 00 	lds	r24, 0x00B9	; 0x8000b9 <__TEXT_REGION_LENGTH__+0x7e00b9>
uint8_t I2C_Send(uint8_t u8data){//Envia dados
	TWDR = u8data;
	TWCR = (1<<TWINT)|(1<<TWEN);
	while((TWCR & (1<<TWINT))==0);
	return I2C_GetStatus();
}
     628:	88 7f       	andi	r24, 0xF8	; 248
     62a:	08 95       	ret

0000062c <I2C_ReciveACK>:

uint8_t I2C_ReciveACK(void){//Ler dados com ACK
	TWCR = (1<<TWINT)|(1<<TWEN)|(1<<TWEA);
     62c:	84 ec       	ldi	r24, 0xC4	; 196
     62e:	80 93 bc 00 	sts	0x00BC, r24	; 0x8000bc <__TEXT_REGION_LENGTH__+0x7e00bc>
	while((TWCR & (1<<TWINT))==0);
     632:	ec eb       	ldi	r30, 0xBC	; 188
     634:	f0 e0       	ldi	r31, 0x00	; 0
     636:	80 81       	ld	r24, Z
     638:	88 23       	and	r24, r24
     63a:	ec f7       	brge	.-6      	; 0x636 <I2C_ReciveACK+0xa>
	return TWDR;
     63c:	80 91 bb 00 	lds	r24, 0x00BB	; 0x8000bb <__TEXT_REGION_LENGTH__+0x7e00bb>
}
     640:	08 95       	ret

00000642 <I2C_ReciveNACK>:

uint8_t I2C_ReciveNACK(void){//Ler dados com NACK
	TWCR = (1<<TWINT)|(1<<TWEN);
     642:	84 e8       	ldi	r24, 0x84	; 132
     644:	80 93 bc 00 	sts	0x00BC, r24	; 0x8000bc <__TEXT_REGION_LENGTH__+0x7e00bc>
	while((TWCR & (1<<TWINT))==0);
     648:	ec eb       	ldi	r30, 0xBC	; 188
     64a:	f0 e0       	ldi	r31, 0x00	; 0
     64c:	80 81       	ld	r24, Z
     64e:	88 23       	and	r24, r24
     650:	ec f7       	brge	.-6      	; 0x64c <I2C_ReciveNACK+0xa>
	return TWDR;
     652:	80 91 bb 00 	lds	r24, 0x00BB	; 0x8000bb <__TEXT_REGION_LENGTH__+0x7e00bb>
}
     656:	08 95       	ret

00000658 <I2C_PRINT_STATUS>:
void I2C_PRINT_STATUS(uint8_t status){
     658:	cf 93       	push	r28
     65a:	c8 2f       	mov	r28, r24
	USART_TRANSFER_STRING("\nI2C Status Code:\t");
     65c:	89 e0       	ldi	r24, 0x09	; 9
     65e:	91 e0       	ldi	r25, 0x01	; 1
     660:	0e 94 58 02 	call	0x4b0	; 0x4b0 <USART_TRANSFER_STRING>
	USART_TRANSFER_INT_HEX(status);
     664:	6c 2f       	mov	r22, r28
     666:	70 e0       	ldi	r23, 0x00	; 0
     668:	80 e0       	ldi	r24, 0x00	; 0
     66a:	90 e0       	ldi	r25, 0x00	; 0
     66c:	0e 94 67 02 	call	0x4ce	; 0x4ce <USART_TRANSFER_INT_HEX>
	USART_TRANSFER_STRING("\n");
     670:	80 e0       	ldi	r24, 0x00	; 0
     672:	91 e0       	ldi	r25, 0x01	; 1
     674:	0e 94 58 02 	call	0x4b0	; 0x4b0 <USART_TRANSFER_STRING>
}
     678:	cf 91       	pop	r28
     67a:	08 95       	ret

0000067c <I2C_SetRegisterSlave>:
uint8_t I2C_SetRegisterSlave(uint8_t addr,uint8_t reg, uint8_t val){
     67c:	1f 93       	push	r17
     67e:	cf 93       	push	r28
     680:	df 93       	push	r29
     682:	c8 2f       	mov	r28, r24
     684:	d6 2f       	mov	r29, r22
     686:	14 2f       	mov	r17, r20
	uint8_t status;
	I2C_Start();
     688:	0e 94 f5 02 	call	0x5ea	; 0x5ea <I2C_Start>
	status = I2C_Send( addr | I2C_WRITE );
     68c:	8c 2f       	mov	r24, r28
     68e:	0e 94 08 03 	call	0x610	; 0x610 <I2C_Send>
	if(status != I2C_STATUS_ADDRESS_W_ACK){
     692:	88 31       	cpi	r24, 0x18	; 24
     694:	61 f4       	brne	.+24     	; 0x6ae <I2C_SetRegisterSlave+0x32>
		return status;
	}
	status = I2C_Send( reg );
     696:	8d 2f       	mov	r24, r29
     698:	0e 94 08 03 	call	0x610	; 0x610 <I2C_Send>
	if(status != I2C_STATUS_DATA_SEND_ACK){
     69c:	88 32       	cpi	r24, 0x28	; 40
     69e:	39 f4       	brne	.+14     	; 0x6ae <I2C_SetRegisterSlave+0x32>
		return status;
	}
	status = I2C_Send( val ); //Sleep OFF
     6a0:	81 2f       	mov	r24, r17
     6a2:	0e 94 08 03 	call	0x610	; 0x610 <I2C_Send>
	if(status != I2C_STATUS_DATA_SEND_ACK){
     6a6:	88 32       	cpi	r24, 0x28	; 40
     6a8:	11 f4       	brne	.+4      	; 0x6ae <I2C_SetRegisterSlave+0x32>
		return status;
	}
	return I2C_Stop();
     6aa:	0e 94 01 03 	call	0x602	; 0x602 <I2C_Stop>
}
     6ae:	df 91       	pop	r29
     6b0:	cf 91       	pop	r28
     6b2:	1f 91       	pop	r17
     6b4:	08 95       	ret

000006b6 <I2C_PRINT_IF_NOT_OK>:
void I2C_PRINT_IF_NOT_OK(uint8_t status){
	if(status != I2C_STATUS_OK){
     6b6:	88 3f       	cpi	r24, 0xF8	; 248
     6b8:	11 f0       	breq	.+4      	; 0x6be <I2C_PRINT_IF_NOT_OK+0x8>
		I2C_PRINT_STATUS(status);
     6ba:	0e 94 2c 03 	call	0x658	; 0x658 <I2C_PRINT_STATUS>
     6be:	08 95       	ret

000006c0 <MPU6050_Inic>:
	#define MPU6050_RA_FIFO_R_W         0x74
	#define MPU6050_RA_WHO_AM_I         0x75
	
void MPU6050_Inic(){
	
	I2C_PRINT_IF_NOT_OK(I2C_SetRegisterSlave(MPU6050_ADDRESS,MPU6050_RA_PWR_MGMT_1,0x01));//Sleep Mode off
     6c0:	41 e0       	ldi	r20, 0x01	; 1
     6c2:	6b e6       	ldi	r22, 0x6B	; 107
     6c4:	80 ed       	ldi	r24, 0xD0	; 208
     6c6:	0e 94 3e 03 	call	0x67c	; 0x67c <I2C_SetRegisterSlave>
     6ca:	0e 94 5b 03 	call	0x6b6	; 0x6b6 <I2C_PRINT_IF_NOT_OK>
	#else
		//round up by default
		__ticks_dc = (uint32_t)(ceil(fabs(__tmp)));
	#endif

	__builtin_avr_delay_cycles(__ticks_dc);
     6ce:	8f e9       	ldi	r24, 0x9F	; 159
     6d0:	9f e0       	ldi	r25, 0x0F	; 15
     6d2:	01 97       	sbiw	r24, 0x01	; 1
     6d4:	f1 f7       	brne	.-4      	; 0x6d2 <MPU6050_Inic+0x12>
     6d6:	00 c0       	rjmp	.+0      	; 0x6d8 <MPU6050_Inic+0x18>
     6d8:	00 00       	nop
	_delay_ms(1);
	
	I2C_PRINT_IF_NOT_OK(I2C_SetRegisterSlave(MPU6050_ADDRESS,MPU6050_RA_INT_PIN_CFG,0x02));//Pass through On
     6da:	42 e0       	ldi	r20, 0x02	; 2
     6dc:	67 e3       	ldi	r22, 0x37	; 55
     6de:	80 ed       	ldi	r24, 0xD0	; 208
     6e0:	0e 94 3e 03 	call	0x67c	; 0x67c <I2C_SetRegisterSlave>
     6e4:	0e 94 5b 03 	call	0x6b6	; 0x6b6 <I2C_PRINT_IF_NOT_OK>
     6e8:	8f e9       	ldi	r24, 0x9F	; 159
     6ea:	9f e0       	ldi	r25, 0x0F	; 15
     6ec:	01 97       	sbiw	r24, 0x01	; 1
     6ee:	f1 f7       	brne	.-4      	; 0x6ec <MPU6050_Inic+0x2c>
     6f0:	00 c0       	rjmp	.+0      	; 0x6f2 <MPU6050_Inic+0x32>
     6f2:	00 00       	nop
	_delay_ms(1);
	
	I2C_PRINT_IF_NOT_OK(I2C_SetRegisterSlave(MPU6050_ADDRESS,MPU6050_RA_USER_CTRL,0x40));//I2C Auxiliary Master Off
     6f4:	40 e4       	ldi	r20, 0x40	; 64
     6f6:	6a e6       	ldi	r22, 0x6A	; 106
     6f8:	80 ed       	ldi	r24, 0xD0	; 208
     6fa:	0e 94 3e 03 	call	0x67c	; 0x67c <I2C_SetRegisterSlave>
     6fe:	0e 94 5b 03 	call	0x6b6	; 0x6b6 <I2C_PRINT_IF_NOT_OK>
     702:	8f e9       	ldi	r24, 0x9F	; 159
     704:	9f e0       	ldi	r25, 0x0F	; 15
     706:	01 97       	sbiw	r24, 0x01	; 1
     708:	f1 f7       	brne	.-4      	; 0x706 <MPU6050_Inic+0x46>
     70a:	00 c0       	rjmp	.+0      	; 0x70c <MPU6050_Inic+0x4c>
     70c:	00 00       	nop
	_delay_ms(1);
	
	I2C_PRINT_IF_NOT_OK(I2C_SetRegisterSlave(MPU6050_ADDRESS,MPU6050_RA_GYRO_CONFIG,0x00));
     70e:	40 e0       	ldi	r20, 0x00	; 0
     710:	6b e1       	ldi	r22, 0x1B	; 27
     712:	80 ed       	ldi	r24, 0xD0	; 208
     714:	0e 94 3e 03 	call	0x67c	; 0x67c <I2C_SetRegisterSlave>
     718:	0e 94 5b 03 	call	0x6b6	; 0x6b6 <I2C_PRINT_IF_NOT_OK>
     71c:	8f e9       	ldi	r24, 0x9F	; 159
     71e:	9f e0       	ldi	r25, 0x0F	; 15
     720:	01 97       	sbiw	r24, 0x01	; 1
     722:	f1 f7       	brne	.-4      	; 0x720 <MPU6050_Inic+0x60>
     724:	00 c0       	rjmp	.+0      	; 0x726 <MPU6050_Inic+0x66>
     726:	00 00       	nop
	_delay_ms(1);

	I2C_PRINT_IF_NOT_OK(I2C_SetRegisterSlave(MPU6050_ADDRESS,MPU6050_RA_ACCEL_CONFIG,0x00));
     728:	40 e0       	ldi	r20, 0x00	; 0
     72a:	6c e1       	ldi	r22, 0x1C	; 28
     72c:	80 ed       	ldi	r24, 0xD0	; 208
     72e:	0e 94 3e 03 	call	0x67c	; 0x67c <I2C_SetRegisterSlave>
     732:	0e 94 5b 03 	call	0x6b6	; 0x6b6 <I2C_PRINT_IF_NOT_OK>
     736:	8f e9       	ldi	r24, 0x9F	; 159
     738:	9f e0       	ldi	r25, 0x0F	; 15
     73a:	01 97       	sbiw	r24, 0x01	; 1
     73c:	f1 f7       	brne	.-4      	; 0x73a <MPU6050_Inic+0x7a>
     73e:	00 c0       	rjmp	.+0      	; 0x740 <MPU6050_Inic+0x80>
     740:	00 00       	nop
	_delay_ms(1);

	I2C_PRINT_IF_NOT_OK(I2C_SetRegisterSlave(MPU6050_ADDRESS,MPU6050_RA_SMPLRT_DIV,0x07));
     742:	47 e0       	ldi	r20, 0x07	; 7
     744:	69 e1       	ldi	r22, 0x19	; 25
     746:	80 ed       	ldi	r24, 0xD0	; 208
     748:	0e 94 3e 03 	call	0x67c	; 0x67c <I2C_SetRegisterSlave>
     74c:	0e 94 5b 03 	call	0x6b6	; 0x6b6 <I2C_PRINT_IF_NOT_OK>
     750:	8f e9       	ldi	r24, 0x9F	; 159
     752:	9f e0       	ldi	r25, 0x0F	; 15
     754:	01 97       	sbiw	r24, 0x01	; 1
     756:	f1 f7       	brne	.-4      	; 0x754 <MPU6050_Inic+0x94>
     758:	00 c0       	rjmp	.+0      	; 0x75a <MPU6050_Inic+0x9a>
     75a:	00 00       	nop
     75c:	08 95       	ret

0000075e <MPU6050_Read>:
	_delay_ms(1);
}

void MPU6050_Read(int *AccelX, int *AccelY, int *AccelZ, int *Temperatura, int *gyroX, int *gyroY, int *gyroZ){
     75e:	5f 92       	push	r5
     760:	6f 92       	push	r6
     762:	7f 92       	push	r7
     764:	8f 92       	push	r8
     766:	9f 92       	push	r9
     768:	af 92       	push	r10
     76a:	bf 92       	push	r11
     76c:	cf 92       	push	r12
     76e:	df 92       	push	r13
     770:	ef 92       	push	r14
     772:	ff 92       	push	r15
     774:	0f 93       	push	r16
     776:	1f 93       	push	r17
     778:	cf 93       	push	r28
     77a:	df 93       	push	r29
     77c:	4c 01       	movw	r8, r24
     77e:	5b 01       	movw	r10, r22
     780:	ea 01       	movw	r28, r20
     782:	39 01       	movw	r6, r18
	I2C_Start();
     784:	0e 94 f5 02 	call	0x5ea	; 0x5ea <I2C_Start>
	I2C_Send( MPU6050_ADDRESS | I2C_WRITE);
     788:	80 ed       	ldi	r24, 0xD0	; 208
     78a:	0e 94 08 03 	call	0x610	; 0x610 <I2C_Send>
	I2C_Send( MPU6050_RA_ACCEL_XOUT_H );
     78e:	8b e3       	ldi	r24, 0x3B	; 59
     790:	0e 94 08 03 	call	0x610	; 0x610 <I2C_Send>
     794:	2f ef       	ldi	r18, 0xFF	; 255
     796:	89 ef       	ldi	r24, 0xF9	; 249
     798:	90 e0       	ldi	r25, 0x00	; 0
     79a:	21 50       	subi	r18, 0x01	; 1
     79c:	80 40       	sbci	r24, 0x00	; 0
     79e:	90 40       	sbci	r25, 0x00	; 0
     7a0:	e1 f7       	brne	.-8      	; 0x79a <MPU6050_Read+0x3c>
     7a2:	00 c0       	rjmp	.+0      	; 0x7a4 <MPU6050_Read+0x46>
     7a4:	00 00       	nop
	_delay_ms(20);
	I2C_Start();
     7a6:	0e 94 f5 02 	call	0x5ea	; 0x5ea <I2C_Start>
	
	I2C_Send( MPU6050_ADDRESS | I2C_READ );
     7aa:	81 ed       	ldi	r24, 0xD1	; 209
     7ac:	0e 94 08 03 	call	0x610	; 0x610 <I2C_Send>
	*AccelX = (I2C_ReciveACK() << 8) | I2C_ReciveACK();
     7b0:	0e 94 16 03 	call	0x62c	; 0x62c <I2C_ReciveACK>
     7b4:	58 2e       	mov	r5, r24
     7b6:	0e 94 16 03 	call	0x62c	; 0x62c <I2C_ReciveACK>
     7ba:	25 2d       	mov	r18, r5
     7bc:	30 e0       	ldi	r19, 0x00	; 0
     7be:	32 2f       	mov	r19, r18
     7c0:	22 27       	eor	r18, r18
     7c2:	28 2b       	or	r18, r24
     7c4:	f4 01       	movw	r30, r8
     7c6:	31 83       	std	Z+1, r19	; 0x01
     7c8:	20 83       	st	Z, r18
	*AccelY = (I2C_ReciveACK() << 8) | I2C_ReciveACK();
     7ca:	0e 94 16 03 	call	0x62c	; 0x62c <I2C_ReciveACK>
     7ce:	98 2e       	mov	r9, r24
     7d0:	0e 94 16 03 	call	0x62c	; 0x62c <I2C_ReciveACK>
     7d4:	29 2d       	mov	r18, r9
     7d6:	30 e0       	ldi	r19, 0x00	; 0
     7d8:	32 2f       	mov	r19, r18
     7da:	22 27       	eor	r18, r18
     7dc:	28 2b       	or	r18, r24
     7de:	f5 01       	movw	r30, r10
     7e0:	31 83       	std	Z+1, r19	; 0x01
     7e2:	20 83       	st	Z, r18
	*AccelZ = (I2C_ReciveACK() << 8) | I2C_ReciveACK();
     7e4:	0e 94 16 03 	call	0x62c	; 0x62c <I2C_ReciveACK>
     7e8:	b8 2e       	mov	r11, r24
     7ea:	0e 94 16 03 	call	0x62c	; 0x62c <I2C_ReciveACK>
     7ee:	2b 2d       	mov	r18, r11
     7f0:	30 e0       	ldi	r19, 0x00	; 0
     7f2:	32 2f       	mov	r19, r18
     7f4:	22 27       	eor	r18, r18
     7f6:	28 2b       	or	r18, r24
     7f8:	39 83       	std	Y+1, r19	; 0x01
     7fa:	28 83       	st	Y, r18
	*Temperatura = (I2C_ReciveACK() << 8) | I2C_ReciveACK();
     7fc:	0e 94 16 03 	call	0x62c	; 0x62c <I2C_ReciveACK>
     800:	c8 2f       	mov	r28, r24
     802:	0e 94 16 03 	call	0x62c	; 0x62c <I2C_ReciveACK>
     806:	2c 2f       	mov	r18, r28
     808:	30 e0       	ldi	r19, 0x00	; 0
     80a:	32 2f       	mov	r19, r18
     80c:	22 27       	eor	r18, r18
     80e:	28 2b       	or	r18, r24
     810:	f3 01       	movw	r30, r6
     812:	31 83       	std	Z+1, r19	; 0x01
     814:	20 83       	st	Z, r18
	*gyroX = (I2C_ReciveACK() << 8) | I2C_ReciveACK();
     816:	0e 94 16 03 	call	0x62c	; 0x62c <I2C_ReciveACK>
     81a:	c8 2f       	mov	r28, r24
     81c:	0e 94 16 03 	call	0x62c	; 0x62c <I2C_ReciveACK>
     820:	2c 2f       	mov	r18, r28
     822:	30 e0       	ldi	r19, 0x00	; 0
     824:	32 2f       	mov	r19, r18
     826:	22 27       	eor	r18, r18
     828:	28 2b       	or	r18, r24
     82a:	f8 01       	movw	r30, r16
     82c:	31 83       	std	Z+1, r19	; 0x01
     82e:	20 83       	st	Z, r18
	*gyroY = (I2C_ReciveACK() << 8) | I2C_ReciveACK();
     830:	0e 94 16 03 	call	0x62c	; 0x62c <I2C_ReciveACK>
     834:	c8 2f       	mov	r28, r24
     836:	0e 94 16 03 	call	0x62c	; 0x62c <I2C_ReciveACK>
     83a:	2c 2f       	mov	r18, r28
     83c:	30 e0       	ldi	r19, 0x00	; 0
     83e:	32 2f       	mov	r19, r18
     840:	22 27       	eor	r18, r18
     842:	28 2b       	or	r18, r24
     844:	f7 01       	movw	r30, r14
     846:	31 83       	std	Z+1, r19	; 0x01
     848:	20 83       	st	Z, r18
	*gyroZ = (I2C_ReciveACK() << 8) | I2C_ReciveNACK();
     84a:	0e 94 16 03 	call	0x62c	; 0x62c <I2C_ReciveACK>
     84e:	c8 2f       	mov	r28, r24
     850:	0e 94 21 03 	call	0x642	; 0x642 <I2C_ReciveNACK>
     854:	2c 2f       	mov	r18, r28
     856:	30 e0       	ldi	r19, 0x00	; 0
     858:	32 2f       	mov	r19, r18
     85a:	22 27       	eor	r18, r18
     85c:	28 2b       	or	r18, r24
     85e:	f6 01       	movw	r30, r12
     860:	31 83       	std	Z+1, r19	; 0x01
     862:	20 83       	st	Z, r18
	
	I2C_Stop();
     864:	0e 94 01 03 	call	0x602	; 0x602 <I2C_Stop>
     868:	8f e9       	ldi	r24, 0x9F	; 159
     86a:	9f e0       	ldi	r25, 0x0F	; 15
     86c:	01 97       	sbiw	r24, 0x01	; 1
     86e:	f1 f7       	brne	.-4      	; 0x86c <MPU6050_Read+0x10e>
     870:	00 c0       	rjmp	.+0      	; 0x872 <MPU6050_Read+0x114>
     872:	00 00       	nop
	_delay_ms(1);
}
     874:	df 91       	pop	r29
     876:	cf 91       	pop	r28
     878:	1f 91       	pop	r17
     87a:	0f 91       	pop	r16
     87c:	ff 90       	pop	r15
     87e:	ef 90       	pop	r14
     880:	df 90       	pop	r13
     882:	cf 90       	pop	r12
     884:	bf 90       	pop	r11
     886:	af 90       	pop	r10
     888:	9f 90       	pop	r9
     88a:	8f 90       	pop	r8
     88c:	7f 90       	pop	r7
     88e:	6f 90       	pop	r6
     890:	5f 90       	pop	r5
     892:	08 95       	ret

00000894 <HMC5883L_Inic>:
     894:	8f e9       	ldi	r24, 0x9F	; 159
     896:	9f e0       	ldi	r25, 0x0F	; 15
     898:	01 97       	sbiw	r24, 0x01	; 1
     89a:	f1 f7       	brne	.-4      	; 0x898 <HMC5883L_Inic+0x4>
     89c:	00 c0       	rjmp	.+0      	; 0x89e <HMC5883L_Inic+0xa>
     89e:	00 00       	nop
#define HMC5883L_RA_ID_B 0x0B
#define HMC5883L_RA_ID_C 0x0C

void HMC5883L_Inic(){
	_delay_ms(1);
	I2C_SetRegisterSlave(HMC5883L_ADDRESS,HMC5883L_RA_CONFA,0x10);
     8a0:	40 e1       	ldi	r20, 0x10	; 16
     8a2:	60 e0       	ldi	r22, 0x00	; 0
     8a4:	8c e3       	ldi	r24, 0x3C	; 60
     8a6:	0e 94 3e 03 	call	0x67c	; 0x67c <I2C_SetRegisterSlave>
     8aa:	8f e9       	ldi	r24, 0x9F	; 159
     8ac:	9f e0       	ldi	r25, 0x0F	; 15
     8ae:	01 97       	sbiw	r24, 0x01	; 1
     8b0:	f1 f7       	brne	.-4      	; 0x8ae <HMC5883L_Inic+0x1a>
     8b2:	00 c0       	rjmp	.+0      	; 0x8b4 <HMC5883L_Inic+0x20>
     8b4:	00 00       	nop
	
	_delay_ms(1);
	I2C_PRINT_IF_NOT_OK(I2C_SetRegisterSlave(HMC5883L_ADDRESS,HMC5883L_RA_CONFB,0x00));
     8b6:	40 e0       	ldi	r20, 0x00	; 0
     8b8:	61 e0       	ldi	r22, 0x01	; 1
     8ba:	8c e3       	ldi	r24, 0x3C	; 60
     8bc:	0e 94 3e 03 	call	0x67c	; 0x67c <I2C_SetRegisterSlave>
     8c0:	0e 94 5b 03 	call	0x6b6	; 0x6b6 <I2C_PRINT_IF_NOT_OK>
     8c4:	8f e9       	ldi	r24, 0x9F	; 159
     8c6:	9f e0       	ldi	r25, 0x0F	; 15
     8c8:	01 97       	sbiw	r24, 0x01	; 1
     8ca:	f1 f7       	brne	.-4      	; 0x8c8 <HMC5883L_Inic+0x34>
     8cc:	00 c0       	rjmp	.+0      	; 0x8ce <HMC5883L_Inic+0x3a>
     8ce:	00 00       	nop
	_delay_ms(1);
	I2C_PRINT_IF_NOT_OK(I2C_SetRegisterSlave(HMC5883L_ADDRESS,HMC5883L_RA_MODE,0x00));
     8d0:	40 e0       	ldi	r20, 0x00	; 0
     8d2:	62 e0       	ldi	r22, 0x02	; 2
     8d4:	8c e3       	ldi	r24, 0x3C	; 60
     8d6:	0e 94 3e 03 	call	0x67c	; 0x67c <I2C_SetRegisterSlave>
     8da:	0e 94 5b 03 	call	0x6b6	; 0x6b6 <I2C_PRINT_IF_NOT_OK>
     8de:	8f e9       	ldi	r24, 0x9F	; 159
     8e0:	9f e0       	ldi	r25, 0x0F	; 15
     8e2:	01 97       	sbiw	r24, 0x01	; 1
     8e4:	f1 f7       	brne	.-4      	; 0x8e2 <HMC5883L_Inic+0x4e>
     8e6:	00 c0       	rjmp	.+0      	; 0x8e8 <HMC5883L_Inic+0x54>
     8e8:	00 00       	nop
     8ea:	08 95       	ret

000008ec <HMC5883L_Read>:
	_delay_ms(1);
}

void HMC5883L_Read(int *MagnetX, int *MagnetY, int *MagnetZ){
     8ec:	df 92       	push	r13
     8ee:	ef 92       	push	r14
     8f0:	ff 92       	push	r15
     8f2:	0f 93       	push	r16
     8f4:	1f 93       	push	r17
     8f6:	cf 93       	push	r28
     8f8:	df 93       	push	r29
     8fa:	ec 01       	movw	r28, r24
     8fc:	7b 01       	movw	r14, r22
     8fe:	8a 01       	movw	r16, r20
	I2C_Start();
     900:	0e 94 f5 02 	call	0x5ea	; 0x5ea <I2C_Start>
	I2C_Send( HMC5883L_ADDRESS | I2C_WRITE);
     904:	8c e3       	ldi	r24, 0x3C	; 60
     906:	0e 94 08 03 	call	0x610	; 0x610 <I2C_Send>
	I2C_Send( HMC5883L_RA_MAGNET_XOUT_H );
     90a:	83 e0       	ldi	r24, 0x03	; 3
     90c:	0e 94 08 03 	call	0x610	; 0x610 <I2C_Send>
     910:	2f ef       	ldi	r18, 0xFF	; 255
     912:	89 ef       	ldi	r24, 0xF9	; 249
     914:	90 e0       	ldi	r25, 0x00	; 0
     916:	21 50       	subi	r18, 0x01	; 1
     918:	80 40       	sbci	r24, 0x00	; 0
     91a:	90 40       	sbci	r25, 0x00	; 0
     91c:	e1 f7       	brne	.-8      	; 0x916 <__stack+0x17>
     91e:	00 c0       	rjmp	.+0      	; 0x920 <__stack+0x21>
     920:	00 00       	nop
	_delay_ms(20);
	I2C_Start();
     922:	0e 94 f5 02 	call	0x5ea	; 0x5ea <I2C_Start>
	
	I2C_Send( HMC5883L_ADDRESS | I2C_READ );
     926:	8d e3       	ldi	r24, 0x3D	; 61
     928:	0e 94 08 03 	call	0x610	; 0x610 <I2C_Send>
	*MagnetX = (I2C_ReciveACK() << 8) | I2C_ReciveACK();
     92c:	0e 94 16 03 	call	0x62c	; 0x62c <I2C_ReciveACK>
     930:	d8 2e       	mov	r13, r24
     932:	0e 94 16 03 	call	0x62c	; 0x62c <I2C_ReciveACK>
     936:	2d 2d       	mov	r18, r13
     938:	30 e0       	ldi	r19, 0x00	; 0
     93a:	32 2f       	mov	r19, r18
     93c:	22 27       	eor	r18, r18
     93e:	28 2b       	or	r18, r24
     940:	39 83       	std	Y+1, r19	; 0x01
     942:	28 83       	st	Y, r18
	*MagnetY = (I2C_ReciveACK() << 8) | I2C_ReciveACK();
     944:	0e 94 16 03 	call	0x62c	; 0x62c <I2C_ReciveACK>
     948:	c8 2f       	mov	r28, r24
     94a:	0e 94 16 03 	call	0x62c	; 0x62c <I2C_ReciveACK>
     94e:	2c 2f       	mov	r18, r28
     950:	30 e0       	ldi	r19, 0x00	; 0
     952:	32 2f       	mov	r19, r18
     954:	22 27       	eor	r18, r18
     956:	28 2b       	or	r18, r24
     958:	f7 01       	movw	r30, r14
     95a:	31 83       	std	Z+1, r19	; 0x01
     95c:	20 83       	st	Z, r18
	*MagnetZ = (I2C_ReciveACK() << 8) | I2C_ReciveNACK();
     95e:	0e 94 16 03 	call	0x62c	; 0x62c <I2C_ReciveACK>
     962:	c8 2f       	mov	r28, r24
     964:	0e 94 21 03 	call	0x642	; 0x642 <I2C_ReciveNACK>
     968:	2c 2f       	mov	r18, r28
     96a:	30 e0       	ldi	r19, 0x00	; 0
     96c:	32 2f       	mov	r19, r18
     96e:	22 27       	eor	r18, r18
     970:	28 2b       	or	r18, r24
     972:	f8 01       	movw	r30, r16
     974:	31 83       	std	Z+1, r19	; 0x01
     976:	20 83       	st	Z, r18
	I2C_Stop();
     978:	0e 94 01 03 	call	0x602	; 0x602 <I2C_Stop>
}
     97c:	df 91       	pop	r29
     97e:	cf 91       	pop	r28
     980:	1f 91       	pop	r17
     982:	0f 91       	pop	r16
     984:	ff 90       	pop	r15
     986:	ef 90       	pop	r14
     988:	df 90       	pop	r13
     98a:	08 95       	ret

0000098c <main>:
#include "../../atmel_libs/i2c.h"
#include "../../atmel_libs/mpu6050.h"
#include "../../atmel_libs/hmc5883l.h"


int main(void) {
     98c:	cf 93       	push	r28
     98e:	df 93       	push	r29
     990:	cd b7       	in	r28, 0x3d	; 61
     992:	de b7       	in	r29, 0x3e	; 62
     994:	cc 5c       	subi	r28, 0xCC	; 204
     996:	d1 09       	sbc	r29, r1
     998:	0f b6       	in	r0, 0x3f	; 63
     99a:	f8 94       	cli
     99c:	de bf       	out	0x3e, r29	; 62
     99e:	0f be       	out	0x3f, r0	; 63
     9a0:	cd bf       	out	0x3d, r28	; 61
	// DECLARAO DE VARIVEIS //
	
	float Q_angle = 0.003; //MATRIZ DE COVARINCIA
     9a2:	86 ea       	ldi	r24, 0xA6	; 166
     9a4:	9b e9       	ldi	r25, 0x9B	; 155
     9a6:	a4 e4       	ldi	r26, 0x44	; 68
     9a8:	bb e3       	ldi	r27, 0x3B	; 59
     9aa:	89 87       	std	Y+9, r24	; 0x09
     9ac:	9a 87       	std	Y+10, r25	; 0x0a
     9ae:	ab 87       	std	Y+11, r26	; 0x0b
     9b0:	bc 87       	std	Y+12, r27	; 0x0c
	float Q_gyro = 0.03; //MATRIZ DE COVARINCIA
     9b2:	8f e8       	ldi	r24, 0x8F	; 143
     9b4:	92 ec       	ldi	r25, 0xC2	; 194
     9b6:	a5 ef       	ldi	r26, 0xF5	; 245
     9b8:	bc e3       	ldi	r27, 0x3C	; 60
     9ba:	8d 83       	std	Y+5, r24	; 0x05
     9bc:	9e 83       	std	Y+6, r25	; 0x06
     9be:	af 83       	std	Y+7, r26	; 0x07
     9c0:	b8 87       	std	Y+8, r27	; 0x08
	float R_angle = square(0.23); //COVARINCIA DO NGULO
     9c2:	6f e1       	ldi	r22, 0x1F	; 31
     9c4:	75 e8       	ldi	r23, 0x85	; 133
     9c6:	8b e6       	ldi	r24, 0x6B	; 107
     9c8:	9e e3       	ldi	r25, 0x3E	; 62
     9ca:	0e 94 cb 0d 	call	0x1b96	; 0x1b96 <square>
     9ce:	69 83       	std	Y+1, r22	; 0x01
     9d0:	7a 83       	std	Y+2, r23	; 0x02
     9d2:	8b 83       	std	Y+3, r24	; 0x03
     9d4:	9c 83       	std	Y+4, r25	; 0x04
	float offset_y = 0;
	float offset_z = 0;
	float XP_11 = 0.01, XP_12 = 0, XP_21 = 0, XP_22 = 0.01;
	float YP_11 = 0.01, YP_12 = 0, YP_21 = 0, YP_22 = 0.01;
	float ZP_11 = 0.01, ZP_12 = 0, ZP_21 = 0, ZP_22 = 0.01;
	float deltaT = 0.05;
     9d6:	8d ec       	ldi	r24, 0xCD	; 205
     9d8:	9c ec       	ldi	r25, 0xCC	; 204
     9da:	ac e4       	ldi	r26, 0x4C	; 76
     9dc:	bd e3       	ldi	r27, 0x3D	; 61
     9de:	8d 87       	std	Y+13, r24	; 0x0d
     9e0:	9e 87       	std	Y+14, r25	; 0x0e
     9e2:	af 87       	std	Y+15, r26	; 0x0f
     9e4:	b8 8b       	std	Y+16, r27	; 0x10
	int AccelX, AccelY, AccelZ, Temperatura, GyroX, GyroY, GyroZ;
	int MagnetX, MagnetY, MagnetZ;
	FKalman valores_X,valores_Y,valores_Z;
	
	
    USART_CONFIG();
     9e6:	0e 94 41 02 	call	0x482	; 0x482 <USART_CONFIG>
	I2C_Inic();
     9ea:	0e 94 e9 02 	call	0x5d2	; 0x5d2 <I2C_Inic>
	MPU6050_Inic();
     9ee:	0e 94 60 03 	call	0x6c0	; 0x6c0 <MPU6050_Inic>
	HMC5883L_Inic();
     9f2:	0e 94 4a 04 	call	0x894	; 0x894 <HMC5883L_Inic>
     9f6:	2f ef       	ldi	r18, 0xFF	; 255
     9f8:	8f e4       	ldi	r24, 0x4F	; 79
     9fa:	93 ec       	ldi	r25, 0xC3	; 195
     9fc:	21 50       	subi	r18, 0x01	; 1
     9fe:	80 40       	sbci	r24, 0x00	; 0
     a00:	90 40       	sbci	r25, 0x00	; 0
     a02:	e1 f7       	brne	.-8      	; 0x9fc <main+0x70>
     a04:	00 c0       	rjmp	.+0      	; 0xa06 <main+0x7a>
     a06:	00 00       	nop
	float offset_x = 0;
	float offset_y = 0;
	float offset_z = 0;
	float XP_11 = 0.01, XP_12 = 0, XP_21 = 0, XP_22 = 0.01;
	float YP_11 = 0.01, YP_12 = 0, YP_21 = 0, YP_22 = 0.01;
	float ZP_11 = 0.01, ZP_12 = 0, ZP_21 = 0, ZP_22 = 0.01;
     a08:	aa e0       	ldi	r26, 0x0A	; 10
     a0a:	c7 54       	subi	r28, 0x47	; 71
     a0c:	df 4f       	sbci	r29, 0xFF	; 255
     a0e:	a8 83       	st	Y, r26
     a10:	c9 5b       	subi	r28, 0xB9	; 185
     a12:	d0 40       	sbci	r29, 0x00	; 0
     a14:	b7 ed       	ldi	r27, 0xD7	; 215
     a16:	c6 54       	subi	r28, 0x46	; 70
     a18:	df 4f       	sbci	r29, 0xFF	; 255
     a1a:	b8 83       	st	Y, r27
     a1c:	ca 5b       	subi	r28, 0xBA	; 186
     a1e:	d0 40       	sbci	r29, 0x00	; 0
     a20:	23 e2       	ldi	r18, 0x23	; 35
     a22:	c5 54       	subi	r28, 0x45	; 69
     a24:	df 4f       	sbci	r29, 0xFF	; 255
     a26:	28 83       	st	Y, r18
     a28:	cb 5b       	subi	r28, 0xBB	; 187
     a2a:	d0 40       	sbci	r29, 0x00	; 0
     a2c:	8c e3       	ldi	r24, 0x3C	; 60
     a2e:	c4 54       	subi	r28, 0x44	; 68
     a30:	df 4f       	sbci	r29, 0xFF	; 255
     a32:	88 83       	st	Y, r24
     a34:	cc 5b       	subi	r28, 0xBC	; 188
     a36:	d0 40       	sbci	r29, 0x00	; 0
     a38:	cb 54       	subi	r28, 0x4B	; 75
     a3a:	df 4f       	sbci	r29, 0xFF	; 255
     a3c:	18 82       	st	Y, r1
     a3e:	c5 5b       	subi	r28, 0xB5	; 181
     a40:	d0 40       	sbci	r29, 0x00	; 0
     a42:	ca 54       	subi	r28, 0x4A	; 74
     a44:	df 4f       	sbci	r29, 0xFF	; 255
     a46:	18 82       	st	Y, r1
     a48:	c6 5b       	subi	r28, 0xB6	; 182
     a4a:	d0 40       	sbci	r29, 0x00	; 0
     a4c:	c9 54       	subi	r28, 0x49	; 73
     a4e:	df 4f       	sbci	r29, 0xFF	; 255
     a50:	18 82       	st	Y, r1
     a52:	c7 5b       	subi	r28, 0xB7	; 183
     a54:	d0 40       	sbci	r29, 0x00	; 0
     a56:	c8 54       	subi	r28, 0x48	; 72
     a58:	df 4f       	sbci	r29, 0xFF	; 255
     a5a:	18 82       	st	Y, r1
     a5c:	c8 5b       	subi	r28, 0xB8	; 184
     a5e:	d0 40       	sbci	r29, 0x00	; 0
     a60:	cf 54       	subi	r28, 0x4F	; 79
     a62:	df 4f       	sbci	r29, 0xFF	; 255
     a64:	18 82       	st	Y, r1
     a66:	c1 5b       	subi	r28, 0xB1	; 177
     a68:	d0 40       	sbci	r29, 0x00	; 0
     a6a:	ce 54       	subi	r28, 0x4E	; 78
     a6c:	df 4f       	sbci	r29, 0xFF	; 255
     a6e:	18 82       	st	Y, r1
     a70:	c2 5b       	subi	r28, 0xB2	; 178
     a72:	d0 40       	sbci	r29, 0x00	; 0
     a74:	cd 54       	subi	r28, 0x4D	; 77
     a76:	df 4f       	sbci	r29, 0xFF	; 255
     a78:	18 82       	st	Y, r1
     a7a:	c3 5b       	subi	r28, 0xB3	; 179
     a7c:	d0 40       	sbci	r29, 0x00	; 0
     a7e:	cc 54       	subi	r28, 0x4C	; 76
     a80:	df 4f       	sbci	r29, 0xFF	; 255
     a82:	18 82       	st	Y, r1
     a84:	c4 5b       	subi	r28, 0xB4	; 180
     a86:	d0 40       	sbci	r29, 0x00	; 0
     a88:	8a e0       	ldi	r24, 0x0A	; 10
     a8a:	97 ed       	ldi	r25, 0xD7	; 215
     a8c:	a3 e2       	ldi	r26, 0x23	; 35
     a8e:	bc e3       	ldi	r27, 0x3C	; 60
     a90:	cb 56       	subi	r28, 0x6B	; 107
     a92:	df 4f       	sbci	r29, 0xFF	; 255
     a94:	88 83       	st	Y, r24
     a96:	99 83       	std	Y+1, r25	; 0x01
     a98:	aa 83       	std	Y+2, r26	; 0x02
     a9a:	bb 83       	std	Y+3, r27	; 0x03
     a9c:	c5 59       	subi	r28, 0x95	; 149
     a9e:	d0 40       	sbci	r29, 0x00	; 0
	float R_angle = square(0.23); //COVARINCIA DO NGULO
	float offset_x = 0;
	float offset_y = 0;
	float offset_z = 0;
	float XP_11 = 0.01, XP_12 = 0, XP_21 = 0, XP_22 = 0.01;
	float YP_11 = 0.01, YP_12 = 0, YP_21 = 0, YP_22 = 0.01;
     aa0:	9a e0       	ldi	r25, 0x0A	; 10
     aa2:	c3 55       	subi	r28, 0x53	; 83
     aa4:	df 4f       	sbci	r29, 0xFF	; 255
     aa6:	98 83       	st	Y, r25
     aa8:	cd 5a       	subi	r28, 0xAD	; 173
     aaa:	d0 40       	sbci	r29, 0x00	; 0
     aac:	a7 ed       	ldi	r26, 0xD7	; 215
     aae:	c2 55       	subi	r28, 0x52	; 82
     ab0:	df 4f       	sbci	r29, 0xFF	; 255
     ab2:	a8 83       	st	Y, r26
     ab4:	ce 5a       	subi	r28, 0xAE	; 174
     ab6:	d0 40       	sbci	r29, 0x00	; 0
     ab8:	b3 e2       	ldi	r27, 0x23	; 35
     aba:	c1 55       	subi	r28, 0x51	; 81
     abc:	df 4f       	sbci	r29, 0xFF	; 255
     abe:	b8 83       	st	Y, r27
     ac0:	cf 5a       	subi	r28, 0xAF	; 175
     ac2:	d0 40       	sbci	r29, 0x00	; 0
     ac4:	2c e3       	ldi	r18, 0x3C	; 60
     ac6:	c0 55       	subi	r28, 0x50	; 80
     ac8:	df 4f       	sbci	r29, 0xFF	; 255
     aca:	28 83       	st	Y, r18
     acc:	c0 5b       	subi	r28, 0xB0	; 176
     ace:	d0 40       	sbci	r29, 0x00	; 0
     ad0:	c7 55       	subi	r28, 0x57	; 87
     ad2:	df 4f       	sbci	r29, 0xFF	; 255
     ad4:	18 82       	st	Y, r1
     ad6:	c9 5a       	subi	r28, 0xA9	; 169
     ad8:	d0 40       	sbci	r29, 0x00	; 0
     ada:	c6 55       	subi	r28, 0x56	; 86
     adc:	df 4f       	sbci	r29, 0xFF	; 255
     ade:	18 82       	st	Y, r1
     ae0:	ca 5a       	subi	r28, 0xAA	; 170
     ae2:	d0 40       	sbci	r29, 0x00	; 0
     ae4:	c5 55       	subi	r28, 0x55	; 85
     ae6:	df 4f       	sbci	r29, 0xFF	; 255
     ae8:	18 82       	st	Y, r1
     aea:	cb 5a       	subi	r28, 0xAB	; 171
     aec:	d0 40       	sbci	r29, 0x00	; 0
     aee:	c4 55       	subi	r28, 0x54	; 84
     af0:	df 4f       	sbci	r29, 0xFF	; 255
     af2:	18 82       	st	Y, r1
     af4:	cc 5a       	subi	r28, 0xAC	; 172
     af6:	d0 40       	sbci	r29, 0x00	; 0
     af8:	cb 55       	subi	r28, 0x5B	; 91
     afa:	df 4f       	sbci	r29, 0xFF	; 255
     afc:	18 82       	st	Y, r1
     afe:	c5 5a       	subi	r28, 0xA5	; 165
     b00:	d0 40       	sbci	r29, 0x00	; 0
     b02:	ca 55       	subi	r28, 0x5A	; 90
     b04:	df 4f       	sbci	r29, 0xFF	; 255
     b06:	18 82       	st	Y, r1
     b08:	c6 5a       	subi	r28, 0xA6	; 166
     b0a:	d0 40       	sbci	r29, 0x00	; 0
     b0c:	c9 55       	subi	r28, 0x59	; 89
     b0e:	df 4f       	sbci	r29, 0xFF	; 255
     b10:	18 82       	st	Y, r1
     b12:	c7 5a       	subi	r28, 0xA7	; 167
     b14:	d0 40       	sbci	r29, 0x00	; 0
     b16:	c8 55       	subi	r28, 0x58	; 88
     b18:	df 4f       	sbci	r29, 0xFF	; 255
     b1a:	18 82       	st	Y, r1
     b1c:	c8 5a       	subi	r28, 0xA8	; 168
     b1e:	d0 40       	sbci	r29, 0x00	; 0
     b20:	8a e0       	ldi	r24, 0x0A	; 10
     b22:	97 ed       	ldi	r25, 0xD7	; 215
     b24:	a3 e2       	ldi	r26, 0x23	; 35
     b26:	bc e3       	ldi	r27, 0x3C	; 60
     b28:	cf 56       	subi	r28, 0x6F	; 111
     b2a:	df 4f       	sbci	r29, 0xFF	; 255
     b2c:	88 83       	st	Y, r24
     b2e:	99 83       	std	Y+1, r25	; 0x01
     b30:	aa 83       	std	Y+2, r26	; 0x02
     b32:	bb 83       	std	Y+3, r27	; 0x03
     b34:	c1 59       	subi	r28, 0x91	; 145
     b36:	d0 40       	sbci	r29, 0x00	; 0
	float Q_gyro = 0.03; //MATRIZ DE COVARINCIA
	float R_angle = square(0.23); //COVARINCIA DO NGULO
	float offset_x = 0;
	float offset_y = 0;
	float offset_z = 0;
	float XP_11 = 0.01, XP_12 = 0, XP_21 = 0, XP_22 = 0.01;
     b38:	9a e0       	ldi	r25, 0x0A	; 10
     b3a:	cf 55       	subi	r28, 0x5F	; 95
     b3c:	df 4f       	sbci	r29, 0xFF	; 255
     b3e:	98 83       	st	Y, r25
     b40:	c1 5a       	subi	r28, 0xA1	; 161
     b42:	d0 40       	sbci	r29, 0x00	; 0
     b44:	a7 ed       	ldi	r26, 0xD7	; 215
     b46:	ce 55       	subi	r28, 0x5E	; 94
     b48:	df 4f       	sbci	r29, 0xFF	; 255
     b4a:	a8 83       	st	Y, r26
     b4c:	c2 5a       	subi	r28, 0xA2	; 162
     b4e:	d0 40       	sbci	r29, 0x00	; 0
     b50:	b3 e2       	ldi	r27, 0x23	; 35
     b52:	cd 55       	subi	r28, 0x5D	; 93
     b54:	df 4f       	sbci	r29, 0xFF	; 255
     b56:	b8 83       	st	Y, r27
     b58:	c3 5a       	subi	r28, 0xA3	; 163
     b5a:	d0 40       	sbci	r29, 0x00	; 0
     b5c:	cc 55       	subi	r28, 0x5C	; 92
     b5e:	df 4f       	sbci	r29, 0xFF	; 255
     b60:	28 83       	st	Y, r18
     b62:	c4 5a       	subi	r28, 0xA4	; 164
     b64:	d0 40       	sbci	r29, 0x00	; 0
     b66:	c3 56       	subi	r28, 0x63	; 99
     b68:	df 4f       	sbci	r29, 0xFF	; 255
     b6a:	18 82       	st	Y, r1
     b6c:	cd 59       	subi	r28, 0x9D	; 157
     b6e:	d0 40       	sbci	r29, 0x00	; 0
     b70:	c2 56       	subi	r28, 0x62	; 98
     b72:	df 4f       	sbci	r29, 0xFF	; 255
     b74:	18 82       	st	Y, r1
     b76:	ce 59       	subi	r28, 0x9E	; 158
     b78:	d0 40       	sbci	r29, 0x00	; 0
     b7a:	c1 56       	subi	r28, 0x61	; 97
     b7c:	df 4f       	sbci	r29, 0xFF	; 255
     b7e:	18 82       	st	Y, r1
     b80:	cf 59       	subi	r28, 0x9F	; 159
     b82:	d0 40       	sbci	r29, 0x00	; 0
     b84:	c0 56       	subi	r28, 0x60	; 96
     b86:	df 4f       	sbci	r29, 0xFF	; 255
     b88:	18 82       	st	Y, r1
     b8a:	c0 5a       	subi	r28, 0xA0	; 160
     b8c:	d0 40       	sbci	r29, 0x00	; 0
     b8e:	c7 56       	subi	r28, 0x67	; 103
     b90:	df 4f       	sbci	r29, 0xFF	; 255
     b92:	18 82       	st	Y, r1
     b94:	c9 59       	subi	r28, 0x99	; 153
     b96:	d0 40       	sbci	r29, 0x00	; 0
     b98:	c6 56       	subi	r28, 0x66	; 102
     b9a:	df 4f       	sbci	r29, 0xFF	; 255
     b9c:	18 82       	st	Y, r1
     b9e:	ca 59       	subi	r28, 0x9A	; 154
     ba0:	d0 40       	sbci	r29, 0x00	; 0
     ba2:	c5 56       	subi	r28, 0x65	; 101
     ba4:	df 4f       	sbci	r29, 0xFF	; 255
     ba6:	18 82       	st	Y, r1
     ba8:	cb 59       	subi	r28, 0x9B	; 155
     baa:	d0 40       	sbci	r29, 0x00	; 0
     bac:	c4 56       	subi	r28, 0x64	; 100
     bae:	df 4f       	sbci	r29, 0xFF	; 255
     bb0:	18 82       	st	Y, r1
     bb2:	cc 59       	subi	r28, 0x9C	; 156
     bb4:	d0 40       	sbci	r29, 0x00	; 0
     bb6:	8a e0       	ldi	r24, 0x0A	; 10
     bb8:	97 ed       	ldi	r25, 0xD7	; 215
     bba:	a3 e2       	ldi	r26, 0x23	; 35
     bbc:	bc e3       	ldi	r27, 0x3C	; 60
     bbe:	c3 57       	subi	r28, 0x73	; 115
     bc0:	df 4f       	sbci	r29, 0xFF	; 255
     bc2:	88 83       	st	Y, r24
     bc4:	99 83       	std	Y+1, r25	; 0x01
     bc6:	aa 83       	std	Y+2, r26	; 0x02
     bc8:	bb 83       	std	Y+3, r27	; 0x03
     bca:	cd 58       	subi	r28, 0x8D	; 141
     bcc:	d0 40       	sbci	r29, 0x00	; 0
	float Q_angle = 0.003; //MATRIZ DE COVARINCIA
	float Q_gyro = 0.03; //MATRIZ DE COVARINCIA
	float R_angle = square(0.23); //COVARINCIA DO NGULO
	float offset_x = 0;
	float offset_y = 0;
	float offset_z = 0;
     bce:	c7 57       	subi	r28, 0x77	; 119
     bd0:	df 4f       	sbci	r29, 0xFF	; 255
     bd2:	18 82       	st	Y, r1
     bd4:	19 82       	std	Y+1, r1	; 0x01
     bd6:	1a 82       	std	Y+2, r1	; 0x02
     bd8:	1b 82       	std	Y+3, r1	; 0x03
     bda:	c9 58       	subi	r28, 0x89	; 137
     bdc:	d0 40       	sbci	r29, 0x00	; 0
	
	float Q_angle = 0.003; //MATRIZ DE COVARINCIA
	float Q_gyro = 0.03; //MATRIZ DE COVARINCIA
	float R_angle = square(0.23); //COVARINCIA DO NGULO
	float offset_x = 0;
	float offset_y = 0;
     bde:	cb 57       	subi	r28, 0x7B	; 123
     be0:	df 4f       	sbci	r29, 0xFF	; 255
     be2:	18 82       	st	Y, r1
     be4:	19 82       	std	Y+1, r1	; 0x01
     be6:	1a 82       	std	Y+2, r1	; 0x02
     be8:	1b 82       	std	Y+3, r1	; 0x03
     bea:	c5 58       	subi	r28, 0x85	; 133
     bec:	d0 40       	sbci	r29, 0x00	; 0
	// DECLARAO DE VARIVEIS //
	
	float Q_angle = 0.003; //MATRIZ DE COVARINCIA
	float Q_gyro = 0.03; //MATRIZ DE COVARINCIA
	float R_angle = square(0.23); //COVARINCIA DO NGULO
	float offset_x = 0;
     bee:	cf 57       	subi	r28, 0x7F	; 127
     bf0:	df 4f       	sbci	r29, 0xFF	; 255
     bf2:	18 82       	st	Y, r1
     bf4:	19 82       	std	Y+1, r1	; 0x01
     bf6:	1a 82       	std	Y+2, r1	; 0x02
     bf8:	1b 82       	std	Y+3, r1	; 0x03
     bfa:	c1 58       	subi	r28, 0x81	; 129
     bfc:	d0 40       	sbci	r29, 0x00	; 0
	
	
    while (1) { // LOOP DE EXECUO
		
		// COLETA DE DADOS MAGNETMETRO ACELERMETRO GIROSCIPIO //
		MPU6050_Read(&AccelX, &AccelY, &AccelZ, &Temperatura, &GyroX, &GyroY, &GyroZ);
     bfe:	de 01       	movw	r26, r28
     c00:	5d 96       	adiw	r26, 0x1d	; 29
     c02:	6d 01       	movw	r12, r26
     c04:	ce 01       	movw	r24, r28
     c06:	4b 96       	adiw	r24, 0x1b	; 27
     c08:	7c 01       	movw	r14, r24
     c0a:	8e 01       	movw	r16, r28
     c0c:	07 5e       	subi	r16, 0xE7	; 231
     c0e:	1f 4f       	sbci	r17, 0xFF	; 255
     c10:	9e 01       	movw	r18, r28
     c12:	29 5e       	subi	r18, 0xE9	; 233
     c14:	3f 4f       	sbci	r19, 0xFF	; 255
     c16:	ae 01       	movw	r20, r28
     c18:	4b 5e       	subi	r20, 0xEB	; 235
     c1a:	5f 4f       	sbci	r21, 0xFF	; 255
     c1c:	be 01       	movw	r22, r28
     c1e:	6d 5e       	subi	r22, 0xED	; 237
     c20:	7f 4f       	sbci	r23, 0xFF	; 255
     c22:	0a 97       	sbiw	r24, 0x0a	; 10
     c24:	0e 94 af 03 	call	0x75e	; 0x75e <MPU6050_Read>
		HMC5883L_Read(&MagnetX,&MagnetY,&MagnetZ);
     c28:	ae 01       	movw	r20, r28
     c2a:	4d 5d       	subi	r20, 0xDD	; 221
     c2c:	5f 4f       	sbci	r21, 0xFF	; 255
     c2e:	be 01       	movw	r22, r28
     c30:	6f 5d       	subi	r22, 0xDF	; 223
     c32:	7f 4f       	sbci	r23, 0xFF	; 255
     c34:	ce 01       	movw	r24, r28
     c36:	4f 96       	adiw	r24, 0x1f	; 31
     c38:	0e 94 76 04 	call	0x8ec	; 0x8ec <HMC5883L_Read>
		
		float acc_sensibilty = 16384/9.81;
		float gyro_sensibilty = 131;
		//float magnet_sensibility = 1370;
		
		float sAccelX = AccelX/acc_sensibilty;
     c3c:	69 89       	ldd	r22, Y+17	; 0x11
     c3e:	7a 89       	ldd	r23, Y+18	; 0x12
     c40:	07 2e       	mov	r0, r23
     c42:	00 0c       	add	r0, r0
     c44:	88 0b       	sbc	r24, r24
     c46:	99 0b       	sbc	r25, r25
     c48:	0e 94 f2 0b 	call	0x17e4	; 0x17e4 <__floatsisf>
     c4c:	2d e3       	ldi	r18, 0x3D	; 61
     c4e:	34 ec       	ldi	r19, 0xC4	; 196
     c50:	40 ed       	ldi	r20, 0xD0	; 208
     c52:	54 e4       	ldi	r21, 0x44	; 68
     c54:	0e 94 7e 0b 	call	0x16fc	; 0x16fc <__divsf3>
     c58:	2b 01       	movw	r4, r22
     c5a:	3c 01       	movw	r6, r24
		float sAccelY = AccelY/acc_sensibilty;
     c5c:	6b 89       	ldd	r22, Y+19	; 0x13
     c5e:	7c 89       	ldd	r23, Y+20	; 0x14
     c60:	07 2e       	mov	r0, r23
     c62:	00 0c       	add	r0, r0
     c64:	88 0b       	sbc	r24, r24
     c66:	99 0b       	sbc	r25, r25
     c68:	0e 94 f2 0b 	call	0x17e4	; 0x17e4 <__floatsisf>
     c6c:	2d e3       	ldi	r18, 0x3D	; 61
     c6e:	34 ec       	ldi	r19, 0xC4	; 196
     c70:	40 ed       	ldi	r20, 0xD0	; 208
     c72:	54 e4       	ldi	r21, 0x44	; 68
     c74:	0e 94 7e 0b 	call	0x16fc	; 0x16fc <__divsf3>
     c78:	4b 01       	movw	r8, r22
     c7a:	5c 01       	movw	r10, r24
		float sAccelZ = AccelZ/acc_sensibilty;
     c7c:	6d 89       	ldd	r22, Y+21	; 0x15
     c7e:	7e 89       	ldd	r23, Y+22	; 0x16
     c80:	07 2e       	mov	r0, r23
     c82:	00 0c       	add	r0, r0
     c84:	88 0b       	sbc	r24, r24
     c86:	99 0b       	sbc	r25, r25
     c88:	0e 94 f2 0b 	call	0x17e4	; 0x17e4 <__floatsisf>
     c8c:	2d e3       	ldi	r18, 0x3D	; 61
     c8e:	34 ec       	ldi	r19, 0xC4	; 196
     c90:	40 ed       	ldi	r20, 0xD0	; 208
     c92:	54 e4       	ldi	r21, 0x44	; 68
     c94:	0e 94 7e 0b 	call	0x16fc	; 0x16fc <__divsf3>
     c98:	6b 01       	movw	r12, r22
     c9a:	7c 01       	movw	r14, r24
		
		float sGyroX = GyroX/gyro_sensibilty;
     c9c:	69 8d       	ldd	r22, Y+25	; 0x19
     c9e:	7a 8d       	ldd	r23, Y+26	; 0x1a
     ca0:	07 2e       	mov	r0, r23
     ca2:	00 0c       	add	r0, r0
     ca4:	88 0b       	sbc	r24, r24
     ca6:	99 0b       	sbc	r25, r25
     ca8:	0e 94 f2 0b 	call	0x17e4	; 0x17e4 <__floatsisf>
     cac:	20 e0       	ldi	r18, 0x00	; 0
     cae:	30 e0       	ldi	r19, 0x00	; 0
     cb0:	43 e0       	ldi	r20, 0x03	; 3
     cb2:	53 e4       	ldi	r21, 0x43	; 67
     cb4:	0e 94 7e 0b 	call	0x16fc	; 0x16fc <__divsf3>
     cb8:	c3 54       	subi	r28, 0x43	; 67
     cba:	df 4f       	sbci	r29, 0xFF	; 255
     cbc:	68 83       	st	Y, r22
     cbe:	79 83       	std	Y+1, r23	; 0x01
     cc0:	8a 83       	std	Y+2, r24	; 0x02
     cc2:	9b 83       	std	Y+3, r25	; 0x03
     cc4:	cd 5b       	subi	r28, 0xBD	; 189
     cc6:	d0 40       	sbci	r29, 0x00	; 0
		float sGyroY = GyroY/gyro_sensibilty;
     cc8:	6b 8d       	ldd	r22, Y+27	; 0x1b
     cca:	7c 8d       	ldd	r23, Y+28	; 0x1c
     ccc:	07 2e       	mov	r0, r23
     cce:	00 0c       	add	r0, r0
     cd0:	88 0b       	sbc	r24, r24
     cd2:	99 0b       	sbc	r25, r25
     cd4:	0e 94 f2 0b 	call	0x17e4	; 0x17e4 <__floatsisf>
     cd8:	20 e0       	ldi	r18, 0x00	; 0
     cda:	30 e0       	ldi	r19, 0x00	; 0
     cdc:	43 e0       	ldi	r20, 0x03	; 3
     cde:	53 e4       	ldi	r21, 0x43	; 67
     ce0:	0e 94 7e 0b 	call	0x16fc	; 0x16fc <__divsf3>
     ce4:	cf 53       	subi	r28, 0x3F	; 63
     ce6:	df 4f       	sbci	r29, 0xFF	; 255
     ce8:	68 83       	st	Y, r22
     cea:	79 83       	std	Y+1, r23	; 0x01
     cec:	8a 83       	std	Y+2, r24	; 0x02
     cee:	9b 83       	std	Y+3, r25	; 0x03
     cf0:	c1 5c       	subi	r28, 0xC1	; 193
     cf2:	d0 40       	sbci	r29, 0x00	; 0
		float sGyroZ = GyroZ/gyro_sensibilty;
     cf4:	6d 8d       	ldd	r22, Y+29	; 0x1d
     cf6:	7e 8d       	ldd	r23, Y+30	; 0x1e
     cf8:	07 2e       	mov	r0, r23
     cfa:	00 0c       	add	r0, r0
     cfc:	88 0b       	sbc	r24, r24
     cfe:	99 0b       	sbc	r25, r25
     d00:	0e 94 f2 0b 	call	0x17e4	; 0x17e4 <__floatsisf>
     d04:	20 e0       	ldi	r18, 0x00	; 0
     d06:	30 e0       	ldi	r19, 0x00	; 0
     d08:	43 e0       	ldi	r20, 0x03	; 3
     d0a:	53 e4       	ldi	r21, 0x43	; 67
     d0c:	0e 94 7e 0b 	call	0x16fc	; 0x16fc <__divsf3>
     d10:	cb 53       	subi	r28, 0x3B	; 59
     d12:	df 4f       	sbci	r29, 0xFF	; 255
     d14:	68 83       	st	Y, r22
     d16:	79 83       	std	Y+1, r23	; 0x01
     d18:	8a 83       	std	Y+2, r24	; 0x02
     d1a:	9b 83       	std	Y+3, r25	; 0x03
     d1c:	c5 5c       	subi	r28, 0xC5	; 197
     d1e:	d0 40       	sbci	r29, 0x00	; 0
		
		float sMagnetX = (MagnetX+580500)/38500;
     d20:	6f 8d       	ldd	r22, Y+31	; 0x1f
     d22:	78 a1       	ldd	r23, Y+32	; 0x20
     d24:	cb 01       	movw	r24, r22
     d26:	77 0f       	add	r23, r23
     d28:	aa 0b       	sbc	r26, r26
     d2a:	bb 0b       	sbc	r27, r27
     d2c:	bc 01       	movw	r22, r24
     d2e:	cd 01       	movw	r24, r26
     d30:	6c 56       	subi	r22, 0x6C	; 108
     d32:	74 42       	sbci	r23, 0x24	; 36
     d34:	87 4f       	sbci	r24, 0xF7	; 247
     d36:	9f 4f       	sbci	r25, 0xFF	; 255
     d38:	24 e6       	ldi	r18, 0x64	; 100
     d3a:	36 e9       	ldi	r19, 0x96	; 150
     d3c:	40 e0       	ldi	r20, 0x00	; 0
     d3e:	50 e0       	ldi	r21, 0x00	; 0
     d40:	0e 94 74 11 	call	0x22e8	; 0x22e8 <__divmodsi4>
     d44:	ca 01       	movw	r24, r20
     d46:	b9 01       	movw	r22, r18
     d48:	0e 94 f2 0b 	call	0x17e4	; 0x17e4 <__floatsisf>
     d4c:	c7 53       	subi	r28, 0x37	; 55
     d4e:	df 4f       	sbci	r29, 0xFF	; 255
     d50:	68 83       	st	Y, r22
     d52:	79 83       	std	Y+1, r23	; 0x01
     d54:	8a 83       	std	Y+2, r24	; 0x02
     d56:	9b 83       	std	Y+3, r25	; 0x03
     d58:	c9 5c       	subi	r28, 0xC9	; 201
     d5a:	d0 40       	sbci	r29, 0x00	; 0
		float sMagnetY = (MagnetY+112000)/42000;
     d5c:	69 a1       	ldd	r22, Y+33	; 0x21
     d5e:	7a a1       	ldd	r23, Y+34	; 0x22
     d60:	cb 01       	movw	r24, r22
     d62:	77 0f       	add	r23, r23
     d64:	aa 0b       	sbc	r26, r26
     d66:	bb 0b       	sbc	r27, r27
     d68:	bc 01       	movw	r22, r24
     d6a:	cd 01       	movw	r24, r26
     d6c:	60 58       	subi	r22, 0x80	; 128
     d6e:	7a 44       	sbci	r23, 0x4A	; 74
     d70:	8e 4f       	sbci	r24, 0xFE	; 254
     d72:	9f 4f       	sbci	r25, 0xFF	; 255
     d74:	20 e1       	ldi	r18, 0x10	; 16
     d76:	34 ea       	ldi	r19, 0xA4	; 164
     d78:	40 e0       	ldi	r20, 0x00	; 0
     d7a:	50 e0       	ldi	r21, 0x00	; 0
     d7c:	0e 94 74 11 	call	0x22e8	; 0x22e8 <__divmodsi4>
     d80:	ca 01       	movw	r24, r20
     d82:	b9 01       	movw	r22, r18
     d84:	0e 94 f2 0b 	call	0x17e4	; 0x17e4 <__floatsisf>
     d88:	e9 96       	adiw	r28, 0x39	; 57
     d8a:	6c af       	std	Y+60, r22	; 0x3c
     d8c:	7d af       	std	Y+61, r23	; 0x3d
     d8e:	8e af       	std	Y+62, r24	; 0x3e
     d90:	9f af       	std	Y+63, r25	; 0x3f
     d92:	e9 97       	sbiw	r28, 0x39	; 57
		float sMagnetZ = (MagnetZ+648000)/9000;
     d94:	6b a1       	ldd	r22, Y+35	; 0x23
     d96:	7c a1       	ldd	r23, Y+36	; 0x24
     d98:	cb 01       	movw	r24, r22
     d9a:	77 0f       	add	r23, r23
     d9c:	aa 0b       	sbc	r26, r26
     d9e:	bb 0b       	sbc	r27, r27
     da0:	bc 01       	movw	r22, r24
     da2:	cd 01       	movw	r24, r26
     da4:	60 5c       	subi	r22, 0xC0	; 192
     da6:	7c 41       	sbci	r23, 0x1C	; 28
     da8:	86 4f       	sbci	r24, 0xF6	; 246
     daa:	9f 4f       	sbci	r25, 0xFF	; 255
     dac:	28 e2       	ldi	r18, 0x28	; 40
     dae:	33 e2       	ldi	r19, 0x23	; 35
     db0:	40 e0       	ldi	r20, 0x00	; 0
     db2:	50 e0       	ldi	r21, 0x00	; 0
     db4:	0e 94 74 11 	call	0x22e8	; 0x22e8 <__divmodsi4>
     db8:	ca 01       	movw	r24, r20
     dba:	b9 01       	movw	r22, r18
     dbc:	0e 94 f2 0b 	call	0x17e4	; 0x17e4 <__floatsisf>
     dc0:	ed 96       	adiw	r28, 0x3d	; 61
     dc2:	6c af       	std	Y+60, r22	; 0x3c
     dc4:	7d af       	std	Y+61, r23	; 0x3d
     dc6:	8e af       	std	Y+62, r24	; 0x3e
     dc8:	9f af       	std	Y+63, r25	; 0x3f
     dca:	ed 97       	sbiw	r28, 0x3d	; 61
		
		
		
		// CALCULO DOS NGULOS DE EULER // 
		
		float Xangle = atan2(sAccelY,sAccelZ); //Roll??
     dcc:	a7 01       	movw	r20, r14
     dce:	96 01       	movw	r18, r12
     dd0:	c5 01       	movw	r24, r10
     dd2:	b4 01       	movw	r22, r8
     dd4:	0e 94 15 0b 	call	0x162a	; 0x162a <atan2>
     dd8:	e1 96       	adiw	r28, 0x31	; 49
     dda:	6c af       	std	Y+60, r22	; 0x3c
     ddc:	7d af       	std	Y+61, r23	; 0x3d
     dde:	8e af       	std	Y+62, r24	; 0x3e
     de0:	9f af       	std	Y+63, r25	; 0x3f
     de2:	e1 97       	sbiw	r28, 0x31	; 49
		float Yangle = atan2(-sAccelX,(sAccelZ<0?-1:1)*sqrt(square(sAccelY)+square(sAccelZ))); //Pitch??		
     de4:	20 e0       	ldi	r18, 0x00	; 0
     de6:	30 e0       	ldi	r19, 0x00	; 0
     de8:	a9 01       	movw	r20, r18
     dea:	c7 01       	movw	r24, r14
     dec:	b6 01       	movw	r22, r12
     dee:	0e 94 74 0b 	call	0x16e8	; 0x16e8 <__cmpsf2>
     df2:	88 23       	and	r24, r24
     df4:	2c f0       	brlt	.+10     	; 0xe00 <main+0x474>
     df6:	21 2c       	mov	r2, r1
     df8:	31 2c       	mov	r3, r1
     dfa:	00 e8       	ldi	r16, 0x80	; 128
     dfc:	1f e3       	ldi	r17, 0x3F	; 63
     dfe:	04 c0       	rjmp	.+8      	; 0xe08 <main+0x47c>
     e00:	21 2c       	mov	r2, r1
     e02:	31 2c       	mov	r3, r1
     e04:	00 e8       	ldi	r16, 0x80	; 128
     e06:	1f eb       	ldi	r17, 0xBF	; 191
     e08:	c5 01       	movw	r24, r10
     e0a:	b4 01       	movw	r22, r8
     e0c:	0e 94 cb 0d 	call	0x1b96	; 0x1b96 <square>
     e10:	4b 01       	movw	r8, r22
     e12:	5c 01       	movw	r10, r24
     e14:	c7 01       	movw	r24, r14
     e16:	b6 01       	movw	r22, r12
     e18:	0e 94 cb 0d 	call	0x1b96	; 0x1b96 <square>
     e1c:	6b 01       	movw	r12, r22
     e1e:	7c 01       	movw	r14, r24
     e20:	a7 01       	movw	r20, r14
     e22:	96 01       	movw	r18, r12
     e24:	c5 01       	movw	r24, r10
     e26:	b4 01       	movw	r22, r8
     e28:	0e 94 96 0a 	call	0x152c	; 0x152c <__addsf3>
     e2c:	0e 94 8b 0d 	call	0x1b16	; 0x1b16 <sqrt>
     e30:	9b 01       	movw	r18, r22
     e32:	ac 01       	movw	r20, r24
     e34:	62 2d       	mov	r22, r2
     e36:	73 2d       	mov	r23, r3
     e38:	80 2f       	mov	r24, r16
     e3a:	91 2f       	mov	r25, r17
     e3c:	0e 94 10 0d 	call	0x1a20	; 0x1a20 <__mulsf3>
     e40:	9b 01       	movw	r18, r22
     e42:	ac 01       	movw	r20, r24
     e44:	c3 01       	movw	r24, r6
     e46:	b2 01       	movw	r22, r4
     e48:	90 58       	subi	r25, 0x80	; 128
     e4a:	0e 94 15 0b 	call	0x162a	; 0x162a <atan2>
     e4e:	e5 96       	adiw	r28, 0x35	; 53
     e50:	6c af       	std	Y+60, r22	; 0x3c
     e52:	7d af       	std	Y+61, r23	; 0x3d
     e54:	8e af       	std	Y+62, r24	; 0x3e
     e56:	9f af       	std	Y+63, r25	; 0x3f
     e58:	e5 97       	sbiw	r28, 0x35	; 53
			
		float Zangle = atan2((sMagnetZ * sin(Xangle) - sMagnetY * cos(Xangle)),
						(sMagnetX * cos(Yangle) + sMagnetY * sin(Yangle) * 
     e5a:	0e 94 79 0b 	call	0x16f2	; 0x16f2 <cos>
     e5e:	2b 01       	movw	r4, r22
     e60:	3c 01       	movw	r6, r24
     e62:	e5 96       	adiw	r28, 0x35	; 53
     e64:	6c ad       	ldd	r22, Y+60	; 0x3c
     e66:	7d ad       	ldd	r23, Y+61	; 0x3d
     e68:	8e ad       	ldd	r24, Y+62	; 0x3e
     e6a:	9f ad       	ldd	r25, Y+63	; 0x3f
     e6c:	e5 97       	sbiw	r28, 0x35	; 53
     e6e:	0e 94 7d 0d 	call	0x1afa	; 0x1afa <sin>
     e72:	4b 01       	movw	r8, r22
     e74:	5c 01       	movw	r10, r24
						sin(Xangle) + sMagnetZ * sin(Yangle) * cos(Xangle))); // Yaw??
     e76:	e1 96       	adiw	r28, 0x31	; 49
     e78:	6c ad       	ldd	r22, Y+60	; 0x3c
     e7a:	7d ad       	ldd	r23, Y+61	; 0x3d
     e7c:	8e ad       	ldd	r24, Y+62	; 0x3e
     e7e:	9f ad       	ldd	r25, Y+63	; 0x3f
     e80:	e1 97       	sbiw	r28, 0x31	; 49
     e82:	0e 94 7d 0d 	call	0x1afa	; 0x1afa <sin>
     e86:	6b 01       	movw	r12, r22
     e88:	7c 01       	movw	r14, r24
     e8a:	e1 96       	adiw	r28, 0x31	; 49
     e8c:	6c ad       	ldd	r22, Y+60	; 0x3c
     e8e:	7d ad       	ldd	r23, Y+61	; 0x3d
     e90:	8e ad       	ldd	r24, Y+62	; 0x3e
     e92:	9f ad       	ldd	r25, Y+63	; 0x3f
     e94:	e1 97       	sbiw	r28, 0x31	; 49
     e96:	0e 94 79 0b 	call	0x16f2	; 0x16f2 <cos>
     e9a:	c3 58       	subi	r28, 0x83	; 131
     e9c:	df 4f       	sbci	r29, 0xFF	; 255
     e9e:	68 83       	st	Y, r22
     ea0:	79 83       	std	Y+1, r23	; 0x01
     ea2:	8a 83       	std	Y+2, r24	; 0x02
     ea4:	9b 83       	std	Y+3, r25	; 0x03
     ea6:	cd 57       	subi	r28, 0x7D	; 125
     ea8:	d0 40       	sbci	r29, 0x00	; 0
		
		float Xangle = atan2(sAccelY,sAccelZ); //Roll??
		float Yangle = atan2(-sAccelX,(sAccelZ<0?-1:1)*sqrt(square(sAccelY)+square(sAccelZ))); //Pitch??		
			
		float Zangle = atan2((sMagnetZ * sin(Xangle) - sMagnetY * cos(Xangle)),
						(sMagnetX * cos(Yangle) + sMagnetY * sin(Yangle) * 
     eaa:	c7 53       	subi	r28, 0x37	; 55
     eac:	df 4f       	sbci	r29, 0xFF	; 255
     eae:	28 81       	ld	r18, Y
     eb0:	39 81       	ldd	r19, Y+1	; 0x01
     eb2:	4a 81       	ldd	r20, Y+2	; 0x02
     eb4:	5b 81       	ldd	r21, Y+3	; 0x03
     eb6:	c9 5c       	subi	r28, 0xC9	; 201
     eb8:	d0 40       	sbci	r29, 0x00	; 0
     eba:	c3 01       	movw	r24, r6
     ebc:	b2 01       	movw	r22, r4
     ebe:	0e 94 10 0d 	call	0x1a20	; 0x1a20 <__mulsf3>
     ec2:	2b 01       	movw	r4, r22
     ec4:	3c 01       	movw	r6, r24
     ec6:	e9 96       	adiw	r28, 0x39	; 57
     ec8:	2c ad       	ldd	r18, Y+60	; 0x3c
     eca:	3d ad       	ldd	r19, Y+61	; 0x3d
     ecc:	4e ad       	ldd	r20, Y+62	; 0x3e
     ece:	5f ad       	ldd	r21, Y+63	; 0x3f
     ed0:	e9 97       	sbiw	r28, 0x39	; 57
     ed2:	c5 01       	movw	r24, r10
     ed4:	b4 01       	movw	r22, r8
     ed6:	0e 94 10 0d 	call	0x1a20	; 0x1a20 <__mulsf3>
     eda:	a7 01       	movw	r20, r14
     edc:	96 01       	movw	r18, r12
     ede:	0e 94 10 0d 	call	0x1a20	; 0x1a20 <__mulsf3>
     ee2:	9b 01       	movw	r18, r22
     ee4:	ac 01       	movw	r20, r24
     ee6:	c3 01       	movw	r24, r6
     ee8:	b2 01       	movw	r22, r4
     eea:	0e 94 96 0a 	call	0x152c	; 0x152c <__addsf3>
     eee:	2b 01       	movw	r4, r22
     ef0:	3c 01       	movw	r6, r24
						sin(Xangle) + sMagnetZ * sin(Yangle) * cos(Xangle))); // Yaw??
     ef2:	a5 01       	movw	r20, r10
     ef4:	94 01       	movw	r18, r8
     ef6:	ed 96       	adiw	r28, 0x3d	; 61
     ef8:	6c ad       	ldd	r22, Y+60	; 0x3c
     efa:	7d ad       	ldd	r23, Y+61	; 0x3d
     efc:	8e ad       	ldd	r24, Y+62	; 0x3e
     efe:	9f ad       	ldd	r25, Y+63	; 0x3f
     f00:	ed 97       	sbiw	r28, 0x3d	; 61
     f02:	0e 94 10 0d 	call	0x1a20	; 0x1a20 <__mulsf3>
     f06:	c3 58       	subi	r28, 0x83	; 131
     f08:	df 4f       	sbci	r29, 0xFF	; 255
     f0a:	28 81       	ld	r18, Y
     f0c:	39 81       	ldd	r19, Y+1	; 0x01
     f0e:	4a 81       	ldd	r20, Y+2	; 0x02
     f10:	5b 81       	ldd	r21, Y+3	; 0x03
     f12:	cd 57       	subi	r28, 0x7D	; 125
     f14:	d0 40       	sbci	r29, 0x00	; 0
     f16:	0e 94 10 0d 	call	0x1a20	; 0x1a20 <__mulsf3>
     f1a:	9b 01       	movw	r18, r22
     f1c:	ac 01       	movw	r20, r24
		// CALCULO DOS NGULOS DE EULER // 
		
		float Xangle = atan2(sAccelY,sAccelZ); //Roll??
		float Yangle = atan2(-sAccelX,(sAccelZ<0?-1:1)*sqrt(square(sAccelY)+square(sAccelZ))); //Pitch??		
			
		float Zangle = atan2((sMagnetZ * sin(Xangle) - sMagnetY * cos(Xangle)),
     f1e:	c3 01       	movw	r24, r6
     f20:	b2 01       	movw	r22, r4
     f22:	0e 94 96 0a 	call	0x152c	; 0x152c <__addsf3>
     f26:	4b 01       	movw	r8, r22
     f28:	5c 01       	movw	r10, r24
     f2a:	a7 01       	movw	r20, r14
     f2c:	96 01       	movw	r18, r12
     f2e:	ed 96       	adiw	r28, 0x3d	; 61
     f30:	6c ad       	ldd	r22, Y+60	; 0x3c
     f32:	7d ad       	ldd	r23, Y+61	; 0x3d
     f34:	8e ad       	ldd	r24, Y+62	; 0x3e
     f36:	9f ad       	ldd	r25, Y+63	; 0x3f
     f38:	ed 97       	sbiw	r28, 0x3d	; 61
     f3a:	0e 94 10 0d 	call	0x1a20	; 0x1a20 <__mulsf3>
     f3e:	6b 01       	movw	r12, r22
     f40:	7c 01       	movw	r14, r24
     f42:	c3 58       	subi	r28, 0x83	; 131
     f44:	df 4f       	sbci	r29, 0xFF	; 255
     f46:	28 81       	ld	r18, Y
     f48:	39 81       	ldd	r19, Y+1	; 0x01
     f4a:	4a 81       	ldd	r20, Y+2	; 0x02
     f4c:	5b 81       	ldd	r21, Y+3	; 0x03
     f4e:	cd 57       	subi	r28, 0x7D	; 125
     f50:	d0 40       	sbci	r29, 0x00	; 0
     f52:	e9 96       	adiw	r28, 0x39	; 57
     f54:	6c ad       	ldd	r22, Y+60	; 0x3c
     f56:	7d ad       	ldd	r23, Y+61	; 0x3d
     f58:	8e ad       	ldd	r24, Y+62	; 0x3e
     f5a:	9f ad       	ldd	r25, Y+63	; 0x3f
     f5c:	e9 97       	sbiw	r28, 0x39	; 57
     f5e:	0e 94 10 0d 	call	0x1a20	; 0x1a20 <__mulsf3>
     f62:	9b 01       	movw	r18, r22
     f64:	ac 01       	movw	r20, r24
     f66:	c7 01       	movw	r24, r14
     f68:	b6 01       	movw	r22, r12
     f6a:	0e 94 95 0a 	call	0x152a	; 0x152a <__subsf3>
     f6e:	a5 01       	movw	r20, r10
     f70:	94 01       	movw	r18, r8
     f72:	0e 94 15 0b 	call	0x162a	; 0x162a <atan2>
     f76:	2b 01       	movw	r4, r22
     f78:	3c 01       	movw	r6, r24
						(sMagnetX * cos(Yangle) + sMagnetY * sin(Yangle) * 
						sin(Xangle) + sMagnetZ * sin(Yangle) * cos(Xangle))); // Yaw??
		
		
		// CHAMADA DAS FUNES DO FILTRO DE KALMAN //
		valores_X = KalmanFilter(Xangle,sGyroX,offset_x,XP_11,XP_12,XP_21,XP_22);
     f7a:	cc 55       	subi	r28, 0x5C	; 92
     f7c:	df 4f       	sbci	r29, 0xFF	; 255
     f7e:	98 81       	ld	r25, Y
     f80:	c4 5a       	subi	r28, 0xA4	; 164
     f82:	d0 40       	sbci	r29, 0x00	; 0
     f84:	9f 93       	push	r25
     f86:	cd 55       	subi	r28, 0x5D	; 93
     f88:	df 4f       	sbci	r29, 0xFF	; 255
     f8a:	a8 81       	ld	r26, Y
     f8c:	c3 5a       	subi	r28, 0xA3	; 163
     f8e:	d0 40       	sbci	r29, 0x00	; 0
     f90:	af 93       	push	r26
     f92:	ce 55       	subi	r28, 0x5E	; 94
     f94:	df 4f       	sbci	r29, 0xFF	; 255
     f96:	b8 81       	ld	r27, Y
     f98:	c2 5a       	subi	r28, 0xA2	; 162
     f9a:	d0 40       	sbci	r29, 0x00	; 0
     f9c:	bf 93       	push	r27
     f9e:	cf 55       	subi	r28, 0x5F	; 95
     fa0:	df 4f       	sbci	r29, 0xFF	; 255
     fa2:	28 81       	ld	r18, Y
     fa4:	c1 5a       	subi	r28, 0xA1	; 161
     fa6:	d0 40       	sbci	r29, 0x00	; 0
     fa8:	2f 93       	push	r18
     faa:	c0 56       	subi	r28, 0x60	; 96
     fac:	df 4f       	sbci	r29, 0xFF	; 255
     fae:	88 81       	ld	r24, Y
     fb0:	c0 5a       	subi	r28, 0xA0	; 160
     fb2:	d0 40       	sbci	r29, 0x00	; 0
     fb4:	8f 93       	push	r24
     fb6:	c1 56       	subi	r28, 0x61	; 97
     fb8:	df 4f       	sbci	r29, 0xFF	; 255
     fba:	98 81       	ld	r25, Y
     fbc:	cf 59       	subi	r28, 0x9F	; 159
     fbe:	d0 40       	sbci	r29, 0x00	; 0
     fc0:	9f 93       	push	r25
     fc2:	c2 56       	subi	r28, 0x62	; 98
     fc4:	df 4f       	sbci	r29, 0xFF	; 255
     fc6:	a8 81       	ld	r26, Y
     fc8:	ce 59       	subi	r28, 0x9E	; 158
     fca:	d0 40       	sbci	r29, 0x00	; 0
     fcc:	af 93       	push	r26
     fce:	c3 56       	subi	r28, 0x63	; 99
     fd0:	df 4f       	sbci	r29, 0xFF	; 255
     fd2:	b8 81       	ld	r27, Y
     fd4:	cd 59       	subi	r28, 0x9D	; 157
     fd6:	d0 40       	sbci	r29, 0x00	; 0
     fd8:	bf 93       	push	r27
     fda:	c4 56       	subi	r28, 0x64	; 100
     fdc:	df 4f       	sbci	r29, 0xFF	; 255
     fde:	28 81       	ld	r18, Y
     fe0:	cc 59       	subi	r28, 0x9C	; 156
     fe2:	d0 40       	sbci	r29, 0x00	; 0
     fe4:	2f 93       	push	r18
     fe6:	c5 56       	subi	r28, 0x65	; 101
     fe8:	df 4f       	sbci	r29, 0xFF	; 255
     fea:	88 81       	ld	r24, Y
     fec:	cb 59       	subi	r28, 0x9B	; 155
     fee:	d0 40       	sbci	r29, 0x00	; 0
     ff0:	8f 93       	push	r24
     ff2:	c6 56       	subi	r28, 0x66	; 102
     ff4:	df 4f       	sbci	r29, 0xFF	; 255
     ff6:	98 81       	ld	r25, Y
     ff8:	ca 59       	subi	r28, 0x9A	; 154
     ffa:	d0 40       	sbci	r29, 0x00	; 0
     ffc:	9f 93       	push	r25
     ffe:	c7 56       	subi	r28, 0x67	; 103
    1000:	df 4f       	sbci	r29, 0xFF	; 255
    1002:	a8 81       	ld	r26, Y
    1004:	c9 59       	subi	r28, 0x99	; 153
    1006:	d0 40       	sbci	r29, 0x00	; 0
    1008:	af 93       	push	r26
    100a:	ce 01       	movw	r24, r28
    100c:	01 96       	adiw	r24, 0x01	; 1
    100e:	1c 01       	movw	r2, r24
    1010:	c3 57       	subi	r28, 0x73	; 115
    1012:	df 4f       	sbci	r29, 0xFF	; 255
    1014:	88 80       	ld	r8, Y
    1016:	99 80       	ldd	r9, Y+1	; 0x01
    1018:	aa 80       	ldd	r10, Y+2	; 0x02
    101a:	bb 80       	ldd	r11, Y+3	; 0x03
    101c:	cd 58       	subi	r28, 0x8D	; 141
    101e:	d0 40       	sbci	r29, 0x00	; 0
    1020:	cf 57       	subi	r28, 0x7F	; 127
    1022:	df 4f       	sbci	r29, 0xFF	; 255
    1024:	c8 80       	ld	r12, Y
    1026:	d9 80       	ldd	r13, Y+1	; 0x01
    1028:	ea 80       	ldd	r14, Y+2	; 0x02
    102a:	fb 80       	ldd	r15, Y+3	; 0x03
    102c:	c1 58       	subi	r28, 0x81	; 129
    102e:	d0 40       	sbci	r29, 0x00	; 0
    1030:	c3 54       	subi	r28, 0x43	; 67
    1032:	df 4f       	sbci	r29, 0xFF	; 255
    1034:	08 81       	ld	r16, Y
    1036:	19 81       	ldd	r17, Y+1	; 0x01
    1038:	2a 81       	ldd	r18, Y+2	; 0x02
    103a:	3b 81       	ldd	r19, Y+3	; 0x03
    103c:	cd 5b       	subi	r28, 0xBD	; 189
    103e:	d0 40       	sbci	r29, 0x00	; 0
    1040:	e1 96       	adiw	r28, 0x31	; 49
    1042:	4c ad       	ldd	r20, Y+60	; 0x3c
    1044:	5d ad       	ldd	r21, Y+61	; 0x3d
    1046:	6e ad       	ldd	r22, Y+62	; 0x3e
    1048:	7f ad       	ldd	r23, Y+63	; 0x3f
    104a:	e1 97       	sbiw	r28, 0x31	; 49
    104c:	84 96       	adiw	r24, 0x24	; 36
    104e:	0e 94 f2 00 	call	0x1e4	; 0x1e4 <KalmanFilter.1987>
		KanguloX=valores_X.K;
    1052:	cd a0       	ldd	r12, Y+37	; 0x25
    1054:	de a0       	ldd	r13, Y+38	; 0x26
    1056:	ef a0       	ldd	r14, Y+39	; 0x27
    1058:	f8 a4       	ldd	r15, Y+40	; 0x28
		offset_x=valores_X.O;
    105a:	89 a5       	ldd	r24, Y+41	; 0x29
    105c:	9a a5       	ldd	r25, Y+42	; 0x2a
    105e:	ab a5       	ldd	r26, Y+43	; 0x2b
    1060:	bc a5       	ldd	r27, Y+44	; 0x2c
    1062:	cf 57       	subi	r28, 0x7F	; 127
    1064:	df 4f       	sbci	r29, 0xFF	; 255
    1066:	88 83       	st	Y, r24
    1068:	99 83       	std	Y+1, r25	; 0x01
    106a:	aa 83       	std	Y+2, r26	; 0x02
    106c:	bb 83       	std	Y+3, r27	; 0x03
    106e:	c1 58       	subi	r28, 0x81	; 129
    1070:	d0 40       	sbci	r29, 0x00	; 0
		XP_11=valores_X.P1;
    1072:	8d a5       	ldd	r24, Y+45	; 0x2d
    1074:	9e a5       	ldd	r25, Y+46	; 0x2e
    1076:	af a5       	ldd	r26, Y+47	; 0x2f
    1078:	b8 a9       	ldd	r27, Y+48	; 0x30
    107a:	c3 57       	subi	r28, 0x73	; 115
    107c:	df 4f       	sbci	r29, 0xFF	; 255
    107e:	88 83       	st	Y, r24
    1080:	99 83       	std	Y+1, r25	; 0x01
    1082:	aa 83       	std	Y+2, r26	; 0x02
    1084:	bb 83       	std	Y+3, r27	; 0x03
    1086:	cd 58       	subi	r28, 0x8D	; 141
    1088:	d0 40       	sbci	r29, 0x00	; 0
		XP_12=valores_X.P2;
    108a:	99 a9       	ldd	r25, Y+49	; 0x31
    108c:	c7 56       	subi	r28, 0x67	; 103
    108e:	df 4f       	sbci	r29, 0xFF	; 255
    1090:	98 83       	st	Y, r25
    1092:	c9 59       	subi	r28, 0x99	; 153
    1094:	d0 40       	sbci	r29, 0x00	; 0
    1096:	aa a9       	ldd	r26, Y+50	; 0x32
    1098:	c6 56       	subi	r28, 0x66	; 102
    109a:	df 4f       	sbci	r29, 0xFF	; 255
    109c:	a8 83       	st	Y, r26
    109e:	ca 59       	subi	r28, 0x9A	; 154
    10a0:	d0 40       	sbci	r29, 0x00	; 0
    10a2:	bb a9       	ldd	r27, Y+51	; 0x33
    10a4:	c5 56       	subi	r28, 0x65	; 101
    10a6:	df 4f       	sbci	r29, 0xFF	; 255
    10a8:	b8 83       	st	Y, r27
    10aa:	cb 59       	subi	r28, 0x9B	; 155
    10ac:	d0 40       	sbci	r29, 0x00	; 0
    10ae:	2c a9       	ldd	r18, Y+52	; 0x34
    10b0:	c4 56       	subi	r28, 0x64	; 100
    10b2:	df 4f       	sbci	r29, 0xFF	; 255
    10b4:	28 83       	st	Y, r18
    10b6:	cc 59       	subi	r28, 0x9C	; 156
    10b8:	d0 40       	sbci	r29, 0x00	; 0
		XP_21=valores_X.P3;
    10ba:	8d a9       	ldd	r24, Y+53	; 0x35
    10bc:	c3 56       	subi	r28, 0x63	; 99
    10be:	df 4f       	sbci	r29, 0xFF	; 255
    10c0:	88 83       	st	Y, r24
    10c2:	cd 59       	subi	r28, 0x9D	; 157
    10c4:	d0 40       	sbci	r29, 0x00	; 0
    10c6:	9e a9       	ldd	r25, Y+54	; 0x36
    10c8:	c2 56       	subi	r28, 0x62	; 98
    10ca:	df 4f       	sbci	r29, 0xFF	; 255
    10cc:	98 83       	st	Y, r25
    10ce:	ce 59       	subi	r28, 0x9E	; 158
    10d0:	d0 40       	sbci	r29, 0x00	; 0
    10d2:	af a9       	ldd	r26, Y+55	; 0x37
    10d4:	c1 56       	subi	r28, 0x61	; 97
    10d6:	df 4f       	sbci	r29, 0xFF	; 255
    10d8:	a8 83       	st	Y, r26
    10da:	cf 59       	subi	r28, 0x9F	; 159
    10dc:	d0 40       	sbci	r29, 0x00	; 0
    10de:	b8 ad       	ldd	r27, Y+56	; 0x38
    10e0:	c0 56       	subi	r28, 0x60	; 96
    10e2:	df 4f       	sbci	r29, 0xFF	; 255
    10e4:	b8 83       	st	Y, r27
    10e6:	c0 5a       	subi	r28, 0xA0	; 160
    10e8:	d0 40       	sbci	r29, 0x00	; 0
		XP_22=valores_X.P4;
    10ea:	29 ad       	ldd	r18, Y+57	; 0x39
    10ec:	cf 55       	subi	r28, 0x5F	; 95
    10ee:	df 4f       	sbci	r29, 0xFF	; 255
    10f0:	28 83       	st	Y, r18
    10f2:	c1 5a       	subi	r28, 0xA1	; 161
    10f4:	d0 40       	sbci	r29, 0x00	; 0
    10f6:	8a ad       	ldd	r24, Y+58	; 0x3a
    10f8:	ce 55       	subi	r28, 0x5E	; 94
    10fa:	df 4f       	sbci	r29, 0xFF	; 255
    10fc:	88 83       	st	Y, r24
    10fe:	c2 5a       	subi	r28, 0xA2	; 162
    1100:	d0 40       	sbci	r29, 0x00	; 0
    1102:	9b ad       	ldd	r25, Y+59	; 0x3b
    1104:	cd 55       	subi	r28, 0x5D	; 93
    1106:	df 4f       	sbci	r29, 0xFF	; 255
    1108:	98 83       	st	Y, r25
    110a:	c3 5a       	subi	r28, 0xA3	; 163
    110c:	d0 40       	sbci	r29, 0x00	; 0
    110e:	ac ad       	ldd	r26, Y+60	; 0x3c
    1110:	cc 55       	subi	r28, 0x5C	; 92
    1112:	df 4f       	sbci	r29, 0xFF	; 255
    1114:	a8 83       	st	Y, r26
    1116:	c4 5a       	subi	r28, 0xA4	; 164
    1118:	d0 40       	sbci	r29, 0x00	; 0
		
		USART_TRANSFER_STRING("2:");
    111a:	8c e1       	ldi	r24, 0x1C	; 28
    111c:	91 e0       	ldi	r25, 0x01	; 1
    111e:	0e 94 58 02 	call	0x4b0	; 0x4b0 <USART_TRANSFER_STRING>
		USART_TRANSFER_FLOAT(KanguloX);
    1122:	c7 01       	movw	r24, r14
    1124:	b6 01       	movw	r22, r12
    1126:	0e 94 bb 02 	call	0x576	; 0x576 <USART_TRANSFER_FLOAT>
		USART_TRANSFER_STRING(";");
    112a:	8f e1       	ldi	r24, 0x1F	; 31
    112c:	91 e0       	ldi	r25, 0x01	; 1
    112e:	0e 94 58 02 	call	0x4b0	; 0x4b0 <USART_TRANSFER_STRING>
		
		valores_Y = KalmanFilter(Yangle,sGyroY,offset_y,YP_11,YP_12,YP_21,YP_22);
    1132:	c0 55       	subi	r28, 0x50	; 80
    1134:	df 4f       	sbci	r29, 0xFF	; 255
    1136:	b8 81       	ld	r27, Y
    1138:	c0 5b       	subi	r28, 0xB0	; 176
    113a:	d0 40       	sbci	r29, 0x00	; 0
    113c:	bf 93       	push	r27
    113e:	c1 55       	subi	r28, 0x51	; 81
    1140:	df 4f       	sbci	r29, 0xFF	; 255
    1142:	28 81       	ld	r18, Y
    1144:	cf 5a       	subi	r28, 0xAF	; 175
    1146:	d0 40       	sbci	r29, 0x00	; 0
    1148:	2f 93       	push	r18
    114a:	c2 55       	subi	r28, 0x52	; 82
    114c:	df 4f       	sbci	r29, 0xFF	; 255
    114e:	88 81       	ld	r24, Y
    1150:	ce 5a       	subi	r28, 0xAE	; 174
    1152:	d0 40       	sbci	r29, 0x00	; 0
    1154:	8f 93       	push	r24
    1156:	c3 55       	subi	r28, 0x53	; 83
    1158:	df 4f       	sbci	r29, 0xFF	; 255
    115a:	98 81       	ld	r25, Y
    115c:	cd 5a       	subi	r28, 0xAD	; 173
    115e:	d0 40       	sbci	r29, 0x00	; 0
    1160:	9f 93       	push	r25
    1162:	c4 55       	subi	r28, 0x54	; 84
    1164:	df 4f       	sbci	r29, 0xFF	; 255
    1166:	a8 81       	ld	r26, Y
    1168:	cc 5a       	subi	r28, 0xAC	; 172
    116a:	d0 40       	sbci	r29, 0x00	; 0
    116c:	af 93       	push	r26
    116e:	c5 55       	subi	r28, 0x55	; 85
    1170:	df 4f       	sbci	r29, 0xFF	; 255
    1172:	b8 81       	ld	r27, Y
    1174:	cb 5a       	subi	r28, 0xAB	; 171
    1176:	d0 40       	sbci	r29, 0x00	; 0
    1178:	bf 93       	push	r27
    117a:	c6 55       	subi	r28, 0x56	; 86
    117c:	df 4f       	sbci	r29, 0xFF	; 255
    117e:	28 81       	ld	r18, Y
    1180:	ca 5a       	subi	r28, 0xAA	; 170
    1182:	d0 40       	sbci	r29, 0x00	; 0
    1184:	2f 93       	push	r18
    1186:	c7 55       	subi	r28, 0x57	; 87
    1188:	df 4f       	sbci	r29, 0xFF	; 255
    118a:	88 81       	ld	r24, Y
    118c:	c9 5a       	subi	r28, 0xA9	; 169
    118e:	d0 40       	sbci	r29, 0x00	; 0
    1190:	8f 93       	push	r24
    1192:	c8 55       	subi	r28, 0x58	; 88
    1194:	df 4f       	sbci	r29, 0xFF	; 255
    1196:	98 81       	ld	r25, Y
    1198:	c8 5a       	subi	r28, 0xA8	; 168
    119a:	d0 40       	sbci	r29, 0x00	; 0
    119c:	9f 93       	push	r25
    119e:	c9 55       	subi	r28, 0x59	; 89
    11a0:	df 4f       	sbci	r29, 0xFF	; 255
    11a2:	a8 81       	ld	r26, Y
    11a4:	c7 5a       	subi	r28, 0xA7	; 167
    11a6:	d0 40       	sbci	r29, 0x00	; 0
    11a8:	af 93       	push	r26
    11aa:	ca 55       	subi	r28, 0x5A	; 90
    11ac:	df 4f       	sbci	r29, 0xFF	; 255
    11ae:	b8 81       	ld	r27, Y
    11b0:	c6 5a       	subi	r28, 0xA6	; 166
    11b2:	d0 40       	sbci	r29, 0x00	; 0
    11b4:	bf 93       	push	r27
    11b6:	cb 55       	subi	r28, 0x5B	; 91
    11b8:	df 4f       	sbci	r29, 0xFF	; 255
    11ba:	28 81       	ld	r18, Y
    11bc:	c5 5a       	subi	r28, 0xA5	; 165
    11be:	d0 40       	sbci	r29, 0x00	; 0
    11c0:	2f 93       	push	r18
    11c2:	c1 01       	movw	r24, r2
    11c4:	cf 56       	subi	r28, 0x6F	; 111
    11c6:	df 4f       	sbci	r29, 0xFF	; 255
    11c8:	88 80       	ld	r8, Y
    11ca:	99 80       	ldd	r9, Y+1	; 0x01
    11cc:	aa 80       	ldd	r10, Y+2	; 0x02
    11ce:	bb 80       	ldd	r11, Y+3	; 0x03
    11d0:	c1 59       	subi	r28, 0x91	; 145
    11d2:	d0 40       	sbci	r29, 0x00	; 0
    11d4:	cb 57       	subi	r28, 0x7B	; 123
    11d6:	df 4f       	sbci	r29, 0xFF	; 255
    11d8:	c8 80       	ld	r12, Y
    11da:	d9 80       	ldd	r13, Y+1	; 0x01
    11dc:	ea 80       	ldd	r14, Y+2	; 0x02
    11de:	fb 80       	ldd	r15, Y+3	; 0x03
    11e0:	c5 58       	subi	r28, 0x85	; 133
    11e2:	d0 40       	sbci	r29, 0x00	; 0
    11e4:	cf 53       	subi	r28, 0x3F	; 63
    11e6:	df 4f       	sbci	r29, 0xFF	; 255
    11e8:	08 81       	ld	r16, Y
    11ea:	19 81       	ldd	r17, Y+1	; 0x01
    11ec:	2a 81       	ldd	r18, Y+2	; 0x02
    11ee:	3b 81       	ldd	r19, Y+3	; 0x03
    11f0:	c1 5c       	subi	r28, 0xC1	; 193
    11f2:	d0 40       	sbci	r29, 0x00	; 0
    11f4:	e5 96       	adiw	r28, 0x35	; 53
    11f6:	4c ad       	ldd	r20, Y+60	; 0x3c
    11f8:	5d ad       	ldd	r21, Y+61	; 0x3d
    11fa:	6e ad       	ldd	r22, Y+62	; 0x3e
    11fc:	7f ad       	ldd	r23, Y+63	; 0x3f
    11fe:	e5 97       	sbiw	r28, 0x35	; 53
    1200:	cc 96       	adiw	r24, 0x3c	; 60
    1202:	0e 94 f2 00 	call	0x1e4	; 0x1e4 <KalmanFilter.1987>
		KanguloY=valores_Y.K;
    1206:	21 96       	adiw	r28, 0x01	; 1
    1208:	cc ac       	ldd	r12, Y+60	; 0x3c
    120a:	dd ac       	ldd	r13, Y+61	; 0x3d
    120c:	ee ac       	ldd	r14, Y+62	; 0x3e
    120e:	ff ac       	ldd	r15, Y+63	; 0x3f
    1210:	21 97       	sbiw	r28, 0x01	; 1
		offset_y=valores_Y.O;
    1212:	25 96       	adiw	r28, 0x05	; 5
    1214:	8c ad       	ldd	r24, Y+60	; 0x3c
    1216:	9d ad       	ldd	r25, Y+61	; 0x3d
    1218:	ae ad       	ldd	r26, Y+62	; 0x3e
    121a:	bf ad       	ldd	r27, Y+63	; 0x3f
    121c:	25 97       	sbiw	r28, 0x05	; 5
    121e:	cb 57       	subi	r28, 0x7B	; 123
    1220:	df 4f       	sbci	r29, 0xFF	; 255
    1222:	88 83       	st	Y, r24
    1224:	99 83       	std	Y+1, r25	; 0x01
    1226:	aa 83       	std	Y+2, r26	; 0x02
    1228:	bb 83       	std	Y+3, r27	; 0x03
    122a:	c5 58       	subi	r28, 0x85	; 133
    122c:	d0 40       	sbci	r29, 0x00	; 0
		YP_11=valores_Y.P1;
    122e:	29 96       	adiw	r28, 0x09	; 9
    1230:	8c ad       	ldd	r24, Y+60	; 0x3c
    1232:	9d ad       	ldd	r25, Y+61	; 0x3d
    1234:	ae ad       	ldd	r26, Y+62	; 0x3e
    1236:	bf ad       	ldd	r27, Y+63	; 0x3f
    1238:	29 97       	sbiw	r28, 0x09	; 9
    123a:	cf 56       	subi	r28, 0x6F	; 111
    123c:	df 4f       	sbci	r29, 0xFF	; 255
    123e:	88 83       	st	Y, r24
    1240:	99 83       	std	Y+1, r25	; 0x01
    1242:	aa 83       	std	Y+2, r26	; 0x02
    1244:	bb 83       	std	Y+3, r27	; 0x03
    1246:	c1 59       	subi	r28, 0x91	; 145
    1248:	d0 40       	sbci	r29, 0x00	; 0
		YP_12=valores_Y.P2;
    124a:	2a 96       	adiw	r28, 0x0a	; 10
    124c:	9f ad       	ldd	r25, Y+63	; 0x3f
    124e:	2a 97       	sbiw	r28, 0x0a	; 10
    1250:	cb 55       	subi	r28, 0x5B	; 91
    1252:	df 4f       	sbci	r29, 0xFF	; 255
    1254:	98 83       	st	Y, r25
    1256:	c5 5a       	subi	r28, 0xA5	; 165
    1258:	d0 40       	sbci	r29, 0x00	; 0
    125a:	2b 96       	adiw	r28, 0x0b	; 11
    125c:	af ad       	ldd	r26, Y+63	; 0x3f
    125e:	2b 97       	sbiw	r28, 0x0b	; 11
    1260:	ca 55       	subi	r28, 0x5A	; 90
    1262:	df 4f       	sbci	r29, 0xFF	; 255
    1264:	a8 83       	st	Y, r26
    1266:	c6 5a       	subi	r28, 0xA6	; 166
    1268:	d0 40       	sbci	r29, 0x00	; 0
    126a:	2c 96       	adiw	r28, 0x0c	; 12
    126c:	bf ad       	ldd	r27, Y+63	; 0x3f
    126e:	2c 97       	sbiw	r28, 0x0c	; 12
    1270:	c9 55       	subi	r28, 0x59	; 89
    1272:	df 4f       	sbci	r29, 0xFF	; 255
    1274:	b8 83       	st	Y, r27
    1276:	c7 5a       	subi	r28, 0xA7	; 167
    1278:	d0 40       	sbci	r29, 0x00	; 0
    127a:	2d 96       	adiw	r28, 0x0d	; 13
    127c:	2f ad       	ldd	r18, Y+63	; 0x3f
    127e:	2d 97       	sbiw	r28, 0x0d	; 13
    1280:	c8 55       	subi	r28, 0x58	; 88
    1282:	df 4f       	sbci	r29, 0xFF	; 255
    1284:	28 83       	st	Y, r18
    1286:	c8 5a       	subi	r28, 0xA8	; 168
    1288:	d0 40       	sbci	r29, 0x00	; 0
		YP_21=valores_Y.P3;
    128a:	2e 96       	adiw	r28, 0x0e	; 14
    128c:	8f ad       	ldd	r24, Y+63	; 0x3f
    128e:	2e 97       	sbiw	r28, 0x0e	; 14
    1290:	c7 55       	subi	r28, 0x57	; 87
    1292:	df 4f       	sbci	r29, 0xFF	; 255
    1294:	88 83       	st	Y, r24
    1296:	c9 5a       	subi	r28, 0xA9	; 169
    1298:	d0 40       	sbci	r29, 0x00	; 0
    129a:	2f 96       	adiw	r28, 0x0f	; 15
    129c:	9f ad       	ldd	r25, Y+63	; 0x3f
    129e:	2f 97       	sbiw	r28, 0x0f	; 15
    12a0:	c6 55       	subi	r28, 0x56	; 86
    12a2:	df 4f       	sbci	r29, 0xFF	; 255
    12a4:	98 83       	st	Y, r25
    12a6:	ca 5a       	subi	r28, 0xAA	; 170
    12a8:	d0 40       	sbci	r29, 0x00	; 0
    12aa:	60 96       	adiw	r28, 0x10	; 16
    12ac:	af ad       	ldd	r26, Y+63	; 0x3f
    12ae:	60 97       	sbiw	r28, 0x10	; 16
    12b0:	c5 55       	subi	r28, 0x55	; 85
    12b2:	df 4f       	sbci	r29, 0xFF	; 255
    12b4:	a8 83       	st	Y, r26
    12b6:	cb 5a       	subi	r28, 0xAB	; 171
    12b8:	d0 40       	sbci	r29, 0x00	; 0
    12ba:	61 96       	adiw	r28, 0x11	; 17
    12bc:	bf ad       	ldd	r27, Y+63	; 0x3f
    12be:	61 97       	sbiw	r28, 0x11	; 17
    12c0:	c4 55       	subi	r28, 0x54	; 84
    12c2:	df 4f       	sbci	r29, 0xFF	; 255
    12c4:	b8 83       	st	Y, r27
    12c6:	cc 5a       	subi	r28, 0xAC	; 172
    12c8:	d0 40       	sbci	r29, 0x00	; 0
		YP_22=valores_Y.P4;
    12ca:	62 96       	adiw	r28, 0x12	; 18
    12cc:	2f ad       	ldd	r18, Y+63	; 0x3f
    12ce:	62 97       	sbiw	r28, 0x12	; 18
    12d0:	c3 55       	subi	r28, 0x53	; 83
    12d2:	df 4f       	sbci	r29, 0xFF	; 255
    12d4:	28 83       	st	Y, r18
    12d6:	cd 5a       	subi	r28, 0xAD	; 173
    12d8:	d0 40       	sbci	r29, 0x00	; 0
    12da:	63 96       	adiw	r28, 0x13	; 19
    12dc:	8f ad       	ldd	r24, Y+63	; 0x3f
    12de:	63 97       	sbiw	r28, 0x13	; 19
    12e0:	c2 55       	subi	r28, 0x52	; 82
    12e2:	df 4f       	sbci	r29, 0xFF	; 255
    12e4:	88 83       	st	Y, r24
    12e6:	ce 5a       	subi	r28, 0xAE	; 174
    12e8:	d0 40       	sbci	r29, 0x00	; 0
    12ea:	64 96       	adiw	r28, 0x14	; 20
    12ec:	9f ad       	ldd	r25, Y+63	; 0x3f
    12ee:	64 97       	sbiw	r28, 0x14	; 20
    12f0:	c1 55       	subi	r28, 0x51	; 81
    12f2:	df 4f       	sbci	r29, 0xFF	; 255
    12f4:	98 83       	st	Y, r25
    12f6:	cf 5a       	subi	r28, 0xAF	; 175
    12f8:	d0 40       	sbci	r29, 0x00	; 0
    12fa:	65 96       	adiw	r28, 0x15	; 21
    12fc:	af ad       	ldd	r26, Y+63	; 0x3f
    12fe:	65 97       	sbiw	r28, 0x15	; 21
    1300:	c0 55       	subi	r28, 0x50	; 80
    1302:	df 4f       	sbci	r29, 0xFF	; 255
    1304:	a8 83       	st	Y, r26
    1306:	c0 5b       	subi	r28, 0xB0	; 176
    1308:	d0 40       	sbci	r29, 0x00	; 0
		
		USART_TRANSFER_STRING("1:");
    130a:	81 e2       	ldi	r24, 0x21	; 33
    130c:	91 e0       	ldi	r25, 0x01	; 1
    130e:	0e 94 58 02 	call	0x4b0	; 0x4b0 <USART_TRANSFER_STRING>
		USART_TRANSFER_FLOAT(KanguloY);
    1312:	c7 01       	movw	r24, r14
    1314:	b6 01       	movw	r22, r12
    1316:	0e 94 bb 02 	call	0x576	; 0x576 <USART_TRANSFER_FLOAT>
		USART_TRANSFER_STRING(";");
    131a:	8f e1       	ldi	r24, 0x1F	; 31
    131c:	91 e0       	ldi	r25, 0x01	; 1
    131e:	0e 94 58 02 	call	0x4b0	; 0x4b0 <USART_TRANSFER_STRING>
		
		valores_Z = KalmanFilter(Zangle,sGyroZ,offset_z,ZP_11,ZP_12,ZP_21,ZP_22);
    1322:	c4 54       	subi	r28, 0x44	; 68
    1324:	df 4f       	sbci	r29, 0xFF	; 255
    1326:	b8 81       	ld	r27, Y
    1328:	cc 5b       	subi	r28, 0xBC	; 188
    132a:	d0 40       	sbci	r29, 0x00	; 0
    132c:	bf 93       	push	r27
    132e:	c5 54       	subi	r28, 0x45	; 69
    1330:	df 4f       	sbci	r29, 0xFF	; 255
    1332:	28 81       	ld	r18, Y
    1334:	cb 5b       	subi	r28, 0xBB	; 187
    1336:	d0 40       	sbci	r29, 0x00	; 0
    1338:	2f 93       	push	r18
    133a:	c6 54       	subi	r28, 0x46	; 70
    133c:	df 4f       	sbci	r29, 0xFF	; 255
    133e:	88 81       	ld	r24, Y
    1340:	ca 5b       	subi	r28, 0xBA	; 186
    1342:	d0 40       	sbci	r29, 0x00	; 0
    1344:	8f 93       	push	r24
    1346:	c7 54       	subi	r28, 0x47	; 71
    1348:	df 4f       	sbci	r29, 0xFF	; 255
    134a:	98 81       	ld	r25, Y
    134c:	c9 5b       	subi	r28, 0xB9	; 185
    134e:	d0 40       	sbci	r29, 0x00	; 0
    1350:	9f 93       	push	r25
    1352:	c8 54       	subi	r28, 0x48	; 72
    1354:	df 4f       	sbci	r29, 0xFF	; 255
    1356:	a8 81       	ld	r26, Y
    1358:	c8 5b       	subi	r28, 0xB8	; 184
    135a:	d0 40       	sbci	r29, 0x00	; 0
    135c:	af 93       	push	r26
    135e:	c9 54       	subi	r28, 0x49	; 73
    1360:	df 4f       	sbci	r29, 0xFF	; 255
    1362:	b8 81       	ld	r27, Y
    1364:	c7 5b       	subi	r28, 0xB7	; 183
    1366:	d0 40       	sbci	r29, 0x00	; 0
    1368:	bf 93       	push	r27
    136a:	ca 54       	subi	r28, 0x4A	; 74
    136c:	df 4f       	sbci	r29, 0xFF	; 255
    136e:	28 81       	ld	r18, Y
    1370:	c6 5b       	subi	r28, 0xB6	; 182
    1372:	d0 40       	sbci	r29, 0x00	; 0
    1374:	2f 93       	push	r18
    1376:	cb 54       	subi	r28, 0x4B	; 75
    1378:	df 4f       	sbci	r29, 0xFF	; 255
    137a:	88 81       	ld	r24, Y
    137c:	c5 5b       	subi	r28, 0xB5	; 181
    137e:	d0 40       	sbci	r29, 0x00	; 0
    1380:	8f 93       	push	r24
    1382:	cc 54       	subi	r28, 0x4C	; 76
    1384:	df 4f       	sbci	r29, 0xFF	; 255
    1386:	98 81       	ld	r25, Y
    1388:	c4 5b       	subi	r28, 0xB4	; 180
    138a:	d0 40       	sbci	r29, 0x00	; 0
    138c:	9f 93       	push	r25
    138e:	cd 54       	subi	r28, 0x4D	; 77
    1390:	df 4f       	sbci	r29, 0xFF	; 255
    1392:	a8 81       	ld	r26, Y
    1394:	c3 5b       	subi	r28, 0xB3	; 179
    1396:	d0 40       	sbci	r29, 0x00	; 0
    1398:	af 93       	push	r26
    139a:	ce 54       	subi	r28, 0x4E	; 78
    139c:	df 4f       	sbci	r29, 0xFF	; 255
    139e:	b8 81       	ld	r27, Y
    13a0:	c2 5b       	subi	r28, 0xB2	; 178
    13a2:	d0 40       	sbci	r29, 0x00	; 0
    13a4:	bf 93       	push	r27
    13a6:	cf 54       	subi	r28, 0x4F	; 79
    13a8:	df 4f       	sbci	r29, 0xFF	; 255
    13aa:	28 81       	ld	r18, Y
    13ac:	c1 5b       	subi	r28, 0xB1	; 177
    13ae:	d0 40       	sbci	r29, 0x00	; 0
    13b0:	2f 93       	push	r18
    13b2:	c1 01       	movw	r24, r2
    13b4:	cb 56       	subi	r28, 0x6B	; 107
    13b6:	df 4f       	sbci	r29, 0xFF	; 255
    13b8:	88 80       	ld	r8, Y
    13ba:	99 80       	ldd	r9, Y+1	; 0x01
    13bc:	aa 80       	ldd	r10, Y+2	; 0x02
    13be:	bb 80       	ldd	r11, Y+3	; 0x03
    13c0:	c5 59       	subi	r28, 0x95	; 149
    13c2:	d0 40       	sbci	r29, 0x00	; 0
    13c4:	c7 57       	subi	r28, 0x77	; 119
    13c6:	df 4f       	sbci	r29, 0xFF	; 255
    13c8:	c8 80       	ld	r12, Y
    13ca:	d9 80       	ldd	r13, Y+1	; 0x01
    13cc:	ea 80       	ldd	r14, Y+2	; 0x02
    13ce:	fb 80       	ldd	r15, Y+3	; 0x03
    13d0:	c9 58       	subi	r28, 0x89	; 137
    13d2:	d0 40       	sbci	r29, 0x00	; 0
    13d4:	cb 53       	subi	r28, 0x3B	; 59
    13d6:	df 4f       	sbci	r29, 0xFF	; 255
    13d8:	08 81       	ld	r16, Y
    13da:	19 81       	ldd	r17, Y+1	; 0x01
    13dc:	2a 81       	ldd	r18, Y+2	; 0x02
    13de:	3b 81       	ldd	r19, Y+3	; 0x03
    13e0:	c5 5c       	subi	r28, 0xC5	; 197
    13e2:	d0 40       	sbci	r29, 0x00	; 0
    13e4:	b3 01       	movw	r22, r6
    13e6:	a2 01       	movw	r20, r4
    13e8:	8c 5a       	subi	r24, 0xAC	; 172
    13ea:	9f 4f       	sbci	r25, 0xFF	; 255
    13ec:	0e 94 f2 00 	call	0x1e4	; 0x1e4 <KalmanFilter.1987>
		KanguloZ=valores_Z.K;
    13f0:	69 96       	adiw	r28, 0x19	; 25
    13f2:	cc ac       	ldd	r12, Y+60	; 0x3c
    13f4:	dd ac       	ldd	r13, Y+61	; 0x3d
    13f6:	ee ac       	ldd	r14, Y+62	; 0x3e
    13f8:	ff ac       	ldd	r15, Y+63	; 0x3f
    13fa:	69 97       	sbiw	r28, 0x19	; 25
		offset_z=valores_Z.O;
    13fc:	6d 96       	adiw	r28, 0x1d	; 29
    13fe:	8c ad       	ldd	r24, Y+60	; 0x3c
    1400:	9d ad       	ldd	r25, Y+61	; 0x3d
    1402:	ae ad       	ldd	r26, Y+62	; 0x3e
    1404:	bf ad       	ldd	r27, Y+63	; 0x3f
    1406:	6d 97       	sbiw	r28, 0x1d	; 29
    1408:	c7 57       	subi	r28, 0x77	; 119
    140a:	df 4f       	sbci	r29, 0xFF	; 255
    140c:	88 83       	st	Y, r24
    140e:	99 83       	std	Y+1, r25	; 0x01
    1410:	aa 83       	std	Y+2, r26	; 0x02
    1412:	bb 83       	std	Y+3, r27	; 0x03
    1414:	c9 58       	subi	r28, 0x89	; 137
    1416:	d0 40       	sbci	r29, 0x00	; 0
		ZP_11=valores_Z.P1;
    1418:	a1 96       	adiw	r28, 0x21	; 33
    141a:	8c ad       	ldd	r24, Y+60	; 0x3c
    141c:	9d ad       	ldd	r25, Y+61	; 0x3d
    141e:	ae ad       	ldd	r26, Y+62	; 0x3e
    1420:	bf ad       	ldd	r27, Y+63	; 0x3f
    1422:	a1 97       	sbiw	r28, 0x21	; 33
    1424:	cb 56       	subi	r28, 0x6B	; 107
    1426:	df 4f       	sbci	r29, 0xFF	; 255
    1428:	88 83       	st	Y, r24
    142a:	99 83       	std	Y+1, r25	; 0x01
    142c:	aa 83       	std	Y+2, r26	; 0x02
    142e:	bb 83       	std	Y+3, r27	; 0x03
    1430:	c5 59       	subi	r28, 0x95	; 149
    1432:	d0 40       	sbci	r29, 0x00	; 0
		ZP_12=valores_Z.P2;
    1434:	a2 96       	adiw	r28, 0x22	; 34
    1436:	9f ad       	ldd	r25, Y+63	; 0x3f
    1438:	a2 97       	sbiw	r28, 0x22	; 34
    143a:	cf 54       	subi	r28, 0x4F	; 79
    143c:	df 4f       	sbci	r29, 0xFF	; 255
    143e:	98 83       	st	Y, r25
    1440:	c1 5b       	subi	r28, 0xB1	; 177
    1442:	d0 40       	sbci	r29, 0x00	; 0
    1444:	a3 96       	adiw	r28, 0x23	; 35
    1446:	af ad       	ldd	r26, Y+63	; 0x3f
    1448:	a3 97       	sbiw	r28, 0x23	; 35
    144a:	ce 54       	subi	r28, 0x4E	; 78
    144c:	df 4f       	sbci	r29, 0xFF	; 255
    144e:	a8 83       	st	Y, r26
    1450:	c2 5b       	subi	r28, 0xB2	; 178
    1452:	d0 40       	sbci	r29, 0x00	; 0
    1454:	a4 96       	adiw	r28, 0x24	; 36
    1456:	bf ad       	ldd	r27, Y+63	; 0x3f
    1458:	a4 97       	sbiw	r28, 0x24	; 36
    145a:	cd 54       	subi	r28, 0x4D	; 77
    145c:	df 4f       	sbci	r29, 0xFF	; 255
    145e:	b8 83       	st	Y, r27
    1460:	c3 5b       	subi	r28, 0xB3	; 179
    1462:	d0 40       	sbci	r29, 0x00	; 0
    1464:	a5 96       	adiw	r28, 0x25	; 37
    1466:	2f ad       	ldd	r18, Y+63	; 0x3f
    1468:	a5 97       	sbiw	r28, 0x25	; 37
    146a:	cc 54       	subi	r28, 0x4C	; 76
    146c:	df 4f       	sbci	r29, 0xFF	; 255
    146e:	28 83       	st	Y, r18
    1470:	c4 5b       	subi	r28, 0xB4	; 180
    1472:	d0 40       	sbci	r29, 0x00	; 0
		ZP_21=valores_Z.P3;
    1474:	a6 96       	adiw	r28, 0x26	; 38
    1476:	8f ad       	ldd	r24, Y+63	; 0x3f
    1478:	a6 97       	sbiw	r28, 0x26	; 38
    147a:	cb 54       	subi	r28, 0x4B	; 75
    147c:	df 4f       	sbci	r29, 0xFF	; 255
    147e:	88 83       	st	Y, r24
    1480:	c5 5b       	subi	r28, 0xB5	; 181
    1482:	d0 40       	sbci	r29, 0x00	; 0
    1484:	a7 96       	adiw	r28, 0x27	; 39
    1486:	9f ad       	ldd	r25, Y+63	; 0x3f
    1488:	a7 97       	sbiw	r28, 0x27	; 39
    148a:	ca 54       	subi	r28, 0x4A	; 74
    148c:	df 4f       	sbci	r29, 0xFF	; 255
    148e:	98 83       	st	Y, r25
    1490:	c6 5b       	subi	r28, 0xB6	; 182
    1492:	d0 40       	sbci	r29, 0x00	; 0
    1494:	a8 96       	adiw	r28, 0x28	; 40
    1496:	af ad       	ldd	r26, Y+63	; 0x3f
    1498:	a8 97       	sbiw	r28, 0x28	; 40
    149a:	c9 54       	subi	r28, 0x49	; 73
    149c:	df 4f       	sbci	r29, 0xFF	; 255
    149e:	a8 83       	st	Y, r26
    14a0:	c7 5b       	subi	r28, 0xB7	; 183
    14a2:	d0 40       	sbci	r29, 0x00	; 0
    14a4:	a9 96       	adiw	r28, 0x29	; 41
    14a6:	bf ad       	ldd	r27, Y+63	; 0x3f
    14a8:	a9 97       	sbiw	r28, 0x29	; 41
    14aa:	c8 54       	subi	r28, 0x48	; 72
    14ac:	df 4f       	sbci	r29, 0xFF	; 255
    14ae:	b8 83       	st	Y, r27
    14b0:	c8 5b       	subi	r28, 0xB8	; 184
    14b2:	d0 40       	sbci	r29, 0x00	; 0
		ZP_22=valores_Z.P4;
    14b4:	aa 96       	adiw	r28, 0x2a	; 42
    14b6:	2f ad       	ldd	r18, Y+63	; 0x3f
    14b8:	aa 97       	sbiw	r28, 0x2a	; 42
    14ba:	c7 54       	subi	r28, 0x47	; 71
    14bc:	df 4f       	sbci	r29, 0xFF	; 255
    14be:	28 83       	st	Y, r18
    14c0:	c9 5b       	subi	r28, 0xB9	; 185
    14c2:	d0 40       	sbci	r29, 0x00	; 0
    14c4:	ab 96       	adiw	r28, 0x2b	; 43
    14c6:	8f ad       	ldd	r24, Y+63	; 0x3f
    14c8:	ab 97       	sbiw	r28, 0x2b	; 43
    14ca:	c6 54       	subi	r28, 0x46	; 70
    14cc:	df 4f       	sbci	r29, 0xFF	; 255
    14ce:	88 83       	st	Y, r24
    14d0:	ca 5b       	subi	r28, 0xBA	; 186
    14d2:	d0 40       	sbci	r29, 0x00	; 0
    14d4:	ac 96       	adiw	r28, 0x2c	; 44
    14d6:	9f ad       	ldd	r25, Y+63	; 0x3f
    14d8:	ac 97       	sbiw	r28, 0x2c	; 44
    14da:	c5 54       	subi	r28, 0x45	; 69
    14dc:	df 4f       	sbci	r29, 0xFF	; 255
    14de:	98 83       	st	Y, r25
    14e0:	cb 5b       	subi	r28, 0xBB	; 187
    14e2:	d0 40       	sbci	r29, 0x00	; 0
    14e4:	ad 96       	adiw	r28, 0x2d	; 45
    14e6:	af ad       	ldd	r26, Y+63	; 0x3f
    14e8:	ad 97       	sbiw	r28, 0x2d	; 45
    14ea:	c4 54       	subi	r28, 0x44	; 68
    14ec:	df 4f       	sbci	r29, 0xFF	; 255
    14ee:	a8 83       	st	Y, r26
    14f0:	cc 5b       	subi	r28, 0xBC	; 188
    14f2:	d0 40       	sbci	r29, 0x00	; 0
		
		USART_TRANSFER_STRING("3:");
    14f4:	0f b6       	in	r0, 0x3f	; 63
    14f6:	f8 94       	cli
    14f8:	de bf       	out	0x3e, r29	; 62
    14fa:	0f be       	out	0x3f, r0	; 63
    14fc:	cd bf       	out	0x3d, r28	; 61
    14fe:	84 e2       	ldi	r24, 0x24	; 36
    1500:	91 e0       	ldi	r25, 0x01	; 1
    1502:	0e 94 58 02 	call	0x4b0	; 0x4b0 <USART_TRANSFER_STRING>
		USART_TRANSFER_FLOAT(KanguloZ);
    1506:	c7 01       	movw	r24, r14
    1508:	b6 01       	movw	r22, r12
    150a:	0e 94 bb 02 	call	0x576	; 0x576 <USART_TRANSFER_FLOAT>
		USART_TRANSFER_STRING(";");
    150e:	8f e1       	ldi	r24, 0x1F	; 31
    1510:	91 e0       	ldi	r25, 0x01	; 1
    1512:	0e 94 58 02 	call	0x4b0	; 0x4b0 <USART_TRANSFER_STRING>
    1516:	9f ef       	ldi	r25, 0xFF	; 255
    1518:	a1 ee       	ldi	r26, 0xE1	; 225
    151a:	b4 e0       	ldi	r27, 0x04	; 4
    151c:	91 50       	subi	r25, 0x01	; 1
    151e:	a0 40       	sbci	r26, 0x00	; 0
    1520:	b0 40       	sbci	r27, 0x00	; 0
    1522:	e1 f7       	brne	.-8      	; 0x151c <main+0xb90>
    1524:	00 c0       	rjmp	.+0      	; 0x1526 <main+0xb9a>
    1526:	00 00       	nop
    1528:	6a cb       	rjmp	.-2348   	; 0xbfe <main+0x272>

0000152a <__subsf3>:
    152a:	50 58       	subi	r21, 0x80	; 128

0000152c <__addsf3>:
    152c:	bb 27       	eor	r27, r27
    152e:	aa 27       	eor	r26, r26
    1530:	0e 94 ad 0a 	call	0x155a	; 0x155a <__addsf3x>
    1534:	0c 94 ba 0c 	jmp	0x1974	; 0x1974 <__fp_round>
    1538:	0e 94 81 0c 	call	0x1902	; 0x1902 <__fp_pscA>
    153c:	38 f0       	brcs	.+14     	; 0x154c <__addsf3+0x20>
    153e:	0e 94 88 0c 	call	0x1910	; 0x1910 <__fp_pscB>
    1542:	20 f0       	brcs	.+8      	; 0x154c <__addsf3+0x20>
    1544:	39 f4       	brne	.+14     	; 0x1554 <__addsf3+0x28>
    1546:	9f 3f       	cpi	r25, 0xFF	; 255
    1548:	19 f4       	brne	.+6      	; 0x1550 <__addsf3+0x24>
    154a:	26 f4       	brtc	.+8      	; 0x1554 <__addsf3+0x28>
    154c:	0c 94 57 0c 	jmp	0x18ae	; 0x18ae <__fp_nan>
    1550:	0e f4       	brtc	.+2      	; 0x1554 <__addsf3+0x28>
    1552:	e0 95       	com	r30
    1554:	e7 fb       	bst	r30, 7
    1556:	0c 94 51 0c 	jmp	0x18a2	; 0x18a2 <__fp_inf>

0000155a <__addsf3x>:
    155a:	e9 2f       	mov	r30, r25
    155c:	0e 94 df 0c 	call	0x19be	; 0x19be <__fp_split3>
    1560:	58 f3       	brcs	.-42     	; 0x1538 <__addsf3+0xc>
    1562:	ba 17       	cp	r27, r26
    1564:	62 07       	cpc	r22, r18
    1566:	73 07       	cpc	r23, r19
    1568:	84 07       	cpc	r24, r20
    156a:	95 07       	cpc	r25, r21
    156c:	20 f0       	brcs	.+8      	; 0x1576 <__addsf3x+0x1c>
    156e:	79 f4       	brne	.+30     	; 0x158e <__addsf3x+0x34>
    1570:	a6 f5       	brtc	.+104    	; 0x15da <__addsf3x+0x80>
    1572:	0c 94 01 0d 	jmp	0x1a02	; 0x1a02 <__fp_zero>
    1576:	0e f4       	brtc	.+2      	; 0x157a <__addsf3x+0x20>
    1578:	e0 95       	com	r30
    157a:	0b 2e       	mov	r0, r27
    157c:	ba 2f       	mov	r27, r26
    157e:	a0 2d       	mov	r26, r0
    1580:	0b 01       	movw	r0, r22
    1582:	b9 01       	movw	r22, r18
    1584:	90 01       	movw	r18, r0
    1586:	0c 01       	movw	r0, r24
    1588:	ca 01       	movw	r24, r20
    158a:	a0 01       	movw	r20, r0
    158c:	11 24       	eor	r1, r1
    158e:	ff 27       	eor	r31, r31
    1590:	59 1b       	sub	r21, r25
    1592:	99 f0       	breq	.+38     	; 0x15ba <__addsf3x+0x60>
    1594:	59 3f       	cpi	r21, 0xF9	; 249
    1596:	50 f4       	brcc	.+20     	; 0x15ac <__addsf3x+0x52>
    1598:	50 3e       	cpi	r21, 0xE0	; 224
    159a:	68 f1       	brcs	.+90     	; 0x15f6 <__addsf3x+0x9c>
    159c:	1a 16       	cp	r1, r26
    159e:	f0 40       	sbci	r31, 0x00	; 0
    15a0:	a2 2f       	mov	r26, r18
    15a2:	23 2f       	mov	r18, r19
    15a4:	34 2f       	mov	r19, r20
    15a6:	44 27       	eor	r20, r20
    15a8:	58 5f       	subi	r21, 0xF8	; 248
    15aa:	f3 cf       	rjmp	.-26     	; 0x1592 <__addsf3x+0x38>
    15ac:	46 95       	lsr	r20
    15ae:	37 95       	ror	r19
    15b0:	27 95       	ror	r18
    15b2:	a7 95       	ror	r26
    15b4:	f0 40       	sbci	r31, 0x00	; 0
    15b6:	53 95       	inc	r21
    15b8:	c9 f7       	brne	.-14     	; 0x15ac <__addsf3x+0x52>
    15ba:	7e f4       	brtc	.+30     	; 0x15da <__addsf3x+0x80>
    15bc:	1f 16       	cp	r1, r31
    15be:	ba 0b       	sbc	r27, r26
    15c0:	62 0b       	sbc	r22, r18
    15c2:	73 0b       	sbc	r23, r19
    15c4:	84 0b       	sbc	r24, r20
    15c6:	ba f0       	brmi	.+46     	; 0x15f6 <__addsf3x+0x9c>
    15c8:	91 50       	subi	r25, 0x01	; 1
    15ca:	a1 f0       	breq	.+40     	; 0x15f4 <__addsf3x+0x9a>
    15cc:	ff 0f       	add	r31, r31
    15ce:	bb 1f       	adc	r27, r27
    15d0:	66 1f       	adc	r22, r22
    15d2:	77 1f       	adc	r23, r23
    15d4:	88 1f       	adc	r24, r24
    15d6:	c2 f7       	brpl	.-16     	; 0x15c8 <__addsf3x+0x6e>
    15d8:	0e c0       	rjmp	.+28     	; 0x15f6 <__addsf3x+0x9c>
    15da:	ba 0f       	add	r27, r26
    15dc:	62 1f       	adc	r22, r18
    15de:	73 1f       	adc	r23, r19
    15e0:	84 1f       	adc	r24, r20
    15e2:	48 f4       	brcc	.+18     	; 0x15f6 <__addsf3x+0x9c>
    15e4:	87 95       	ror	r24
    15e6:	77 95       	ror	r23
    15e8:	67 95       	ror	r22
    15ea:	b7 95       	ror	r27
    15ec:	f7 95       	ror	r31
    15ee:	9e 3f       	cpi	r25, 0xFE	; 254
    15f0:	08 f0       	brcs	.+2      	; 0x15f4 <__addsf3x+0x9a>
    15f2:	b0 cf       	rjmp	.-160    	; 0x1554 <__addsf3+0x28>
    15f4:	93 95       	inc	r25
    15f6:	88 0f       	add	r24, r24
    15f8:	08 f0       	brcs	.+2      	; 0x15fc <__addsf3x+0xa2>
    15fa:	99 27       	eor	r25, r25
    15fc:	ee 0f       	add	r30, r30
    15fe:	97 95       	ror	r25
    1600:	87 95       	ror	r24
    1602:	08 95       	ret
    1604:	0e 94 81 0c 	call	0x1902	; 0x1902 <__fp_pscA>
    1608:	60 f0       	brcs	.+24     	; 0x1622 <__addsf3x+0xc8>
    160a:	80 e8       	ldi	r24, 0x80	; 128
    160c:	91 e0       	ldi	r25, 0x01	; 1
    160e:	09 f4       	brne	.+2      	; 0x1612 <__addsf3x+0xb8>
    1610:	9e ef       	ldi	r25, 0xFE	; 254
    1612:	0e 94 88 0c 	call	0x1910	; 0x1910 <__fp_pscB>
    1616:	28 f0       	brcs	.+10     	; 0x1622 <__addsf3x+0xc8>
    1618:	40 e8       	ldi	r20, 0x80	; 128
    161a:	51 e0       	ldi	r21, 0x01	; 1
    161c:	71 f4       	brne	.+28     	; 0x163a <atan2+0x10>
    161e:	5e ef       	ldi	r21, 0xFE	; 254
    1620:	0c c0       	rjmp	.+24     	; 0x163a <atan2+0x10>
    1622:	0c 94 57 0c 	jmp	0x18ae	; 0x18ae <__fp_nan>
    1626:	0c 94 01 0d 	jmp	0x1a02	; 0x1a02 <__fp_zero>

0000162a <atan2>:
    162a:	e9 2f       	mov	r30, r25
    162c:	e0 78       	andi	r30, 0x80	; 128
    162e:	0e 94 df 0c 	call	0x19be	; 0x19be <__fp_split3>
    1632:	40 f3       	brcs	.-48     	; 0x1604 <__addsf3x+0xaa>
    1634:	09 2e       	mov	r0, r25
    1636:	05 2a       	or	r0, r21
    1638:	b1 f3       	breq	.-20     	; 0x1626 <__addsf3x+0xcc>
    163a:	26 17       	cp	r18, r22
    163c:	37 07       	cpc	r19, r23
    163e:	48 07       	cpc	r20, r24
    1640:	59 07       	cpc	r21, r25
    1642:	38 f0       	brcs	.+14     	; 0x1652 <atan2+0x28>
    1644:	0e 2e       	mov	r0, r30
    1646:	07 f8       	bld	r0, 7
    1648:	e0 25       	eor	r30, r0
    164a:	69 f0       	breq	.+26     	; 0x1666 <atan2+0x3c>
    164c:	e0 25       	eor	r30, r0
    164e:	e0 64       	ori	r30, 0x40	; 64
    1650:	0a c0       	rjmp	.+20     	; 0x1666 <atan2+0x3c>
    1652:	ef 63       	ori	r30, 0x3F	; 63
    1654:	07 f8       	bld	r0, 7
    1656:	00 94       	com	r0
    1658:	07 fa       	bst	r0, 7
    165a:	db 01       	movw	r26, r22
    165c:	b9 01       	movw	r22, r18
    165e:	9d 01       	movw	r18, r26
    1660:	dc 01       	movw	r26, r24
    1662:	ca 01       	movw	r24, r20
    1664:	ad 01       	movw	r20, r26
    1666:	ef 93       	push	r30
    1668:	0e 94 95 0b 	call	0x172a	; 0x172a <__divsf3_pse>
    166c:	0e 94 ba 0c 	call	0x1974	; 0x1974 <__fp_round>
    1670:	0e 94 45 0b 	call	0x168a	; 0x168a <atan>
    1674:	5f 91       	pop	r21
    1676:	55 23       	and	r21, r21
    1678:	39 f0       	breq	.+14     	; 0x1688 <atan2+0x5e>
    167a:	2b ed       	ldi	r18, 0xDB	; 219
    167c:	3f e0       	ldi	r19, 0x0F	; 15
    167e:	49 e4       	ldi	r20, 0x49	; 73
    1680:	50 fd       	sbrc	r21, 0
    1682:	49 ec       	ldi	r20, 0xC9	; 201
    1684:	0c 94 96 0a 	jmp	0x152c	; 0x152c <__addsf3>
    1688:	08 95       	ret

0000168a <atan>:
    168a:	df 93       	push	r29
    168c:	dd 27       	eor	r29, r29
    168e:	b9 2f       	mov	r27, r25
    1690:	bf 77       	andi	r27, 0x7F	; 127
    1692:	40 e8       	ldi	r20, 0x80	; 128
    1694:	5f e3       	ldi	r21, 0x3F	; 63
    1696:	16 16       	cp	r1, r22
    1698:	17 06       	cpc	r1, r23
    169a:	48 07       	cpc	r20, r24
    169c:	5b 07       	cpc	r21, r27
    169e:	18 f4       	brcc	.+6      	; 0x16a6 <atan+0x1c>
    16a0:	d9 2f       	mov	r29, r25
    16a2:	0e 94 08 0d 	call	0x1a10	; 0x1a10 <inverse>
    16a6:	9f 93       	push	r25
    16a8:	8f 93       	push	r24
    16aa:	7f 93       	push	r23
    16ac:	6f 93       	push	r22
    16ae:	0e 94 cb 0d 	call	0x1b96	; 0x1b96 <square>
    16b2:	e8 e6       	ldi	r30, 0x68	; 104
    16b4:	f0 e0       	ldi	r31, 0x00	; 0
    16b6:	0e 94 5a 0c 	call	0x18b4	; 0x18b4 <__fp_powser>
    16ba:	0e 94 ba 0c 	call	0x1974	; 0x1974 <__fp_round>
    16be:	2f 91       	pop	r18
    16c0:	3f 91       	pop	r19
    16c2:	4f 91       	pop	r20
    16c4:	5f 91       	pop	r21
    16c6:	0e 94 23 0d 	call	0x1a46	; 0x1a46 <__mulsf3x>
    16ca:	dd 23       	and	r29, r29
    16cc:	51 f0       	breq	.+20     	; 0x16e2 <atan+0x58>
    16ce:	90 58       	subi	r25, 0x80	; 128
    16d0:	a2 ea       	ldi	r26, 0xA2	; 162
    16d2:	2a ed       	ldi	r18, 0xDA	; 218
    16d4:	3f e0       	ldi	r19, 0x0F	; 15
    16d6:	49 ec       	ldi	r20, 0xC9	; 201
    16d8:	5f e3       	ldi	r21, 0x3F	; 63
    16da:	d0 78       	andi	r29, 0x80	; 128
    16dc:	5d 27       	eor	r21, r29
    16de:	0e 94 ad 0a 	call	0x155a	; 0x155a <__addsf3x>
    16e2:	df 91       	pop	r29
    16e4:	0c 94 ba 0c 	jmp	0x1974	; 0x1974 <__fp_round>

000016e8 <__cmpsf2>:
    16e8:	0e 94 2d 0c 	call	0x185a	; 0x185a <__fp_cmp>
    16ec:	08 f4       	brcc	.+2      	; 0x16f0 <__cmpsf2+0x8>
    16ee:	81 e0       	ldi	r24, 0x01	; 1
    16f0:	08 95       	ret

000016f2 <cos>:
    16f2:	0e 94 91 0c 	call	0x1922	; 0x1922 <__fp_rempio2>
    16f6:	e3 95       	inc	r30
    16f8:	0c 94 cb 0c 	jmp	0x1996	; 0x1996 <__fp_sinus>

000016fc <__divsf3>:
    16fc:	0e 94 92 0b 	call	0x1724	; 0x1724 <__divsf3x>
    1700:	0c 94 ba 0c 	jmp	0x1974	; 0x1974 <__fp_round>
    1704:	0e 94 88 0c 	call	0x1910	; 0x1910 <__fp_pscB>
    1708:	58 f0       	brcs	.+22     	; 0x1720 <__divsf3+0x24>
    170a:	0e 94 81 0c 	call	0x1902	; 0x1902 <__fp_pscA>
    170e:	40 f0       	brcs	.+16     	; 0x1720 <__divsf3+0x24>
    1710:	29 f4       	brne	.+10     	; 0x171c <__divsf3+0x20>
    1712:	5f 3f       	cpi	r21, 0xFF	; 255
    1714:	29 f0       	breq	.+10     	; 0x1720 <__divsf3+0x24>
    1716:	0c 94 51 0c 	jmp	0x18a2	; 0x18a2 <__fp_inf>
    171a:	51 11       	cpse	r21, r1
    171c:	0c 94 02 0d 	jmp	0x1a04	; 0x1a04 <__fp_szero>
    1720:	0c 94 57 0c 	jmp	0x18ae	; 0x18ae <__fp_nan>

00001724 <__divsf3x>:
    1724:	0e 94 df 0c 	call	0x19be	; 0x19be <__fp_split3>
    1728:	68 f3       	brcs	.-38     	; 0x1704 <__divsf3+0x8>

0000172a <__divsf3_pse>:
    172a:	99 23       	and	r25, r25
    172c:	b1 f3       	breq	.-20     	; 0x171a <__divsf3+0x1e>
    172e:	55 23       	and	r21, r21
    1730:	91 f3       	breq	.-28     	; 0x1716 <__divsf3+0x1a>
    1732:	95 1b       	sub	r25, r21
    1734:	55 0b       	sbc	r21, r21
    1736:	bb 27       	eor	r27, r27
    1738:	aa 27       	eor	r26, r26
    173a:	62 17       	cp	r22, r18
    173c:	73 07       	cpc	r23, r19
    173e:	84 07       	cpc	r24, r20
    1740:	38 f0       	brcs	.+14     	; 0x1750 <__divsf3_pse+0x26>
    1742:	9f 5f       	subi	r25, 0xFF	; 255
    1744:	5f 4f       	sbci	r21, 0xFF	; 255
    1746:	22 0f       	add	r18, r18
    1748:	33 1f       	adc	r19, r19
    174a:	44 1f       	adc	r20, r20
    174c:	aa 1f       	adc	r26, r26
    174e:	a9 f3       	breq	.-22     	; 0x173a <__divsf3_pse+0x10>
    1750:	35 d0       	rcall	.+106    	; 0x17bc <__divsf3_pse+0x92>
    1752:	0e 2e       	mov	r0, r30
    1754:	3a f0       	brmi	.+14     	; 0x1764 <__divsf3_pse+0x3a>
    1756:	e0 e8       	ldi	r30, 0x80	; 128
    1758:	32 d0       	rcall	.+100    	; 0x17be <__divsf3_pse+0x94>
    175a:	91 50       	subi	r25, 0x01	; 1
    175c:	50 40       	sbci	r21, 0x00	; 0
    175e:	e6 95       	lsr	r30
    1760:	00 1c       	adc	r0, r0
    1762:	ca f7       	brpl	.-14     	; 0x1756 <__divsf3_pse+0x2c>
    1764:	2b d0       	rcall	.+86     	; 0x17bc <__divsf3_pse+0x92>
    1766:	fe 2f       	mov	r31, r30
    1768:	29 d0       	rcall	.+82     	; 0x17bc <__divsf3_pse+0x92>
    176a:	66 0f       	add	r22, r22
    176c:	77 1f       	adc	r23, r23
    176e:	88 1f       	adc	r24, r24
    1770:	bb 1f       	adc	r27, r27
    1772:	26 17       	cp	r18, r22
    1774:	37 07       	cpc	r19, r23
    1776:	48 07       	cpc	r20, r24
    1778:	ab 07       	cpc	r26, r27
    177a:	b0 e8       	ldi	r27, 0x80	; 128
    177c:	09 f0       	breq	.+2      	; 0x1780 <__divsf3_pse+0x56>
    177e:	bb 0b       	sbc	r27, r27
    1780:	80 2d       	mov	r24, r0
    1782:	bf 01       	movw	r22, r30
    1784:	ff 27       	eor	r31, r31
    1786:	93 58       	subi	r25, 0x83	; 131
    1788:	5f 4f       	sbci	r21, 0xFF	; 255
    178a:	3a f0       	brmi	.+14     	; 0x179a <__divsf3_pse+0x70>
    178c:	9e 3f       	cpi	r25, 0xFE	; 254
    178e:	51 05       	cpc	r21, r1
    1790:	78 f0       	brcs	.+30     	; 0x17b0 <__divsf3_pse+0x86>
    1792:	0c 94 51 0c 	jmp	0x18a2	; 0x18a2 <__fp_inf>
    1796:	0c 94 02 0d 	jmp	0x1a04	; 0x1a04 <__fp_szero>
    179a:	5f 3f       	cpi	r21, 0xFF	; 255
    179c:	e4 f3       	brlt	.-8      	; 0x1796 <__divsf3_pse+0x6c>
    179e:	98 3e       	cpi	r25, 0xE8	; 232
    17a0:	d4 f3       	brlt	.-12     	; 0x1796 <__divsf3_pse+0x6c>
    17a2:	86 95       	lsr	r24
    17a4:	77 95       	ror	r23
    17a6:	67 95       	ror	r22
    17a8:	b7 95       	ror	r27
    17aa:	f7 95       	ror	r31
    17ac:	9f 5f       	subi	r25, 0xFF	; 255
    17ae:	c9 f7       	brne	.-14     	; 0x17a2 <__divsf3_pse+0x78>
    17b0:	88 0f       	add	r24, r24
    17b2:	91 1d       	adc	r25, r1
    17b4:	96 95       	lsr	r25
    17b6:	87 95       	ror	r24
    17b8:	97 f9       	bld	r25, 7
    17ba:	08 95       	ret
    17bc:	e1 e0       	ldi	r30, 0x01	; 1
    17be:	66 0f       	add	r22, r22
    17c0:	77 1f       	adc	r23, r23
    17c2:	88 1f       	adc	r24, r24
    17c4:	bb 1f       	adc	r27, r27
    17c6:	62 17       	cp	r22, r18
    17c8:	73 07       	cpc	r23, r19
    17ca:	84 07       	cpc	r24, r20
    17cc:	ba 07       	cpc	r27, r26
    17ce:	20 f0       	brcs	.+8      	; 0x17d8 <__divsf3_pse+0xae>
    17d0:	62 1b       	sub	r22, r18
    17d2:	73 0b       	sbc	r23, r19
    17d4:	84 0b       	sbc	r24, r20
    17d6:	ba 0b       	sbc	r27, r26
    17d8:	ee 1f       	adc	r30, r30
    17da:	88 f7       	brcc	.-30     	; 0x17be <__divsf3_pse+0x94>
    17dc:	e0 95       	com	r30
    17de:	08 95       	ret

000017e0 <__floatunsisf>:
    17e0:	e8 94       	clt
    17e2:	09 c0       	rjmp	.+18     	; 0x17f6 <__floatsisf+0x12>

000017e4 <__floatsisf>:
    17e4:	97 fb       	bst	r25, 7
    17e6:	3e f4       	brtc	.+14     	; 0x17f6 <__floatsisf+0x12>
    17e8:	90 95       	com	r25
    17ea:	80 95       	com	r24
    17ec:	70 95       	com	r23
    17ee:	61 95       	neg	r22
    17f0:	7f 4f       	sbci	r23, 0xFF	; 255
    17f2:	8f 4f       	sbci	r24, 0xFF	; 255
    17f4:	9f 4f       	sbci	r25, 0xFF	; 255
    17f6:	99 23       	and	r25, r25
    17f8:	a9 f0       	breq	.+42     	; 0x1824 <__floatsisf+0x40>
    17fa:	f9 2f       	mov	r31, r25
    17fc:	96 e9       	ldi	r25, 0x96	; 150
    17fe:	bb 27       	eor	r27, r27
    1800:	93 95       	inc	r25
    1802:	f6 95       	lsr	r31
    1804:	87 95       	ror	r24
    1806:	77 95       	ror	r23
    1808:	67 95       	ror	r22
    180a:	b7 95       	ror	r27
    180c:	f1 11       	cpse	r31, r1
    180e:	f8 cf       	rjmp	.-16     	; 0x1800 <__floatsisf+0x1c>
    1810:	fa f4       	brpl	.+62     	; 0x1850 <__floatsisf+0x6c>
    1812:	bb 0f       	add	r27, r27
    1814:	11 f4       	brne	.+4      	; 0x181a <__floatsisf+0x36>
    1816:	60 ff       	sbrs	r22, 0
    1818:	1b c0       	rjmp	.+54     	; 0x1850 <__floatsisf+0x6c>
    181a:	6f 5f       	subi	r22, 0xFF	; 255
    181c:	7f 4f       	sbci	r23, 0xFF	; 255
    181e:	8f 4f       	sbci	r24, 0xFF	; 255
    1820:	9f 4f       	sbci	r25, 0xFF	; 255
    1822:	16 c0       	rjmp	.+44     	; 0x1850 <__floatsisf+0x6c>
    1824:	88 23       	and	r24, r24
    1826:	11 f0       	breq	.+4      	; 0x182c <__floatsisf+0x48>
    1828:	96 e9       	ldi	r25, 0x96	; 150
    182a:	11 c0       	rjmp	.+34     	; 0x184e <__floatsisf+0x6a>
    182c:	77 23       	and	r23, r23
    182e:	21 f0       	breq	.+8      	; 0x1838 <__floatsisf+0x54>
    1830:	9e e8       	ldi	r25, 0x8E	; 142
    1832:	87 2f       	mov	r24, r23
    1834:	76 2f       	mov	r23, r22
    1836:	05 c0       	rjmp	.+10     	; 0x1842 <__floatsisf+0x5e>
    1838:	66 23       	and	r22, r22
    183a:	71 f0       	breq	.+28     	; 0x1858 <__floatsisf+0x74>
    183c:	96 e8       	ldi	r25, 0x86	; 134
    183e:	86 2f       	mov	r24, r22
    1840:	70 e0       	ldi	r23, 0x00	; 0
    1842:	60 e0       	ldi	r22, 0x00	; 0
    1844:	2a f0       	brmi	.+10     	; 0x1850 <__floatsisf+0x6c>
    1846:	9a 95       	dec	r25
    1848:	66 0f       	add	r22, r22
    184a:	77 1f       	adc	r23, r23
    184c:	88 1f       	adc	r24, r24
    184e:	da f7       	brpl	.-10     	; 0x1846 <__floatsisf+0x62>
    1850:	88 0f       	add	r24, r24
    1852:	96 95       	lsr	r25
    1854:	87 95       	ror	r24
    1856:	97 f9       	bld	r25, 7
    1858:	08 95       	ret

0000185a <__fp_cmp>:
    185a:	99 0f       	add	r25, r25
    185c:	00 08       	sbc	r0, r0
    185e:	55 0f       	add	r21, r21
    1860:	aa 0b       	sbc	r26, r26
    1862:	e0 e8       	ldi	r30, 0x80	; 128
    1864:	fe ef       	ldi	r31, 0xFE	; 254
    1866:	16 16       	cp	r1, r22
    1868:	17 06       	cpc	r1, r23
    186a:	e8 07       	cpc	r30, r24
    186c:	f9 07       	cpc	r31, r25
    186e:	c0 f0       	brcs	.+48     	; 0x18a0 <__fp_cmp+0x46>
    1870:	12 16       	cp	r1, r18
    1872:	13 06       	cpc	r1, r19
    1874:	e4 07       	cpc	r30, r20
    1876:	f5 07       	cpc	r31, r21
    1878:	98 f0       	brcs	.+38     	; 0x18a0 <__fp_cmp+0x46>
    187a:	62 1b       	sub	r22, r18
    187c:	73 0b       	sbc	r23, r19
    187e:	84 0b       	sbc	r24, r20
    1880:	95 0b       	sbc	r25, r21
    1882:	39 f4       	brne	.+14     	; 0x1892 <__fp_cmp+0x38>
    1884:	0a 26       	eor	r0, r26
    1886:	61 f0       	breq	.+24     	; 0x18a0 <__fp_cmp+0x46>
    1888:	23 2b       	or	r18, r19
    188a:	24 2b       	or	r18, r20
    188c:	25 2b       	or	r18, r21
    188e:	21 f4       	brne	.+8      	; 0x1898 <__fp_cmp+0x3e>
    1890:	08 95       	ret
    1892:	0a 26       	eor	r0, r26
    1894:	09 f4       	brne	.+2      	; 0x1898 <__fp_cmp+0x3e>
    1896:	a1 40       	sbci	r26, 0x01	; 1
    1898:	a6 95       	lsr	r26
    189a:	8f ef       	ldi	r24, 0xFF	; 255
    189c:	81 1d       	adc	r24, r1
    189e:	81 1d       	adc	r24, r1
    18a0:	08 95       	ret

000018a2 <__fp_inf>:
    18a2:	97 f9       	bld	r25, 7
    18a4:	9f 67       	ori	r25, 0x7F	; 127
    18a6:	80 e8       	ldi	r24, 0x80	; 128
    18a8:	70 e0       	ldi	r23, 0x00	; 0
    18aa:	60 e0       	ldi	r22, 0x00	; 0
    18ac:	08 95       	ret

000018ae <__fp_nan>:
    18ae:	9f ef       	ldi	r25, 0xFF	; 255
    18b0:	80 ec       	ldi	r24, 0xC0	; 192
    18b2:	08 95       	ret

000018b4 <__fp_powser>:
    18b4:	df 93       	push	r29
    18b6:	cf 93       	push	r28
    18b8:	1f 93       	push	r17
    18ba:	0f 93       	push	r16
    18bc:	ff 92       	push	r15
    18be:	ef 92       	push	r14
    18c0:	df 92       	push	r13
    18c2:	7b 01       	movw	r14, r22
    18c4:	8c 01       	movw	r16, r24
    18c6:	68 94       	set
    18c8:	06 c0       	rjmp	.+12     	; 0x18d6 <__fp_powser+0x22>
    18ca:	da 2e       	mov	r13, r26
    18cc:	ef 01       	movw	r28, r30
    18ce:	0e 94 23 0d 	call	0x1a46	; 0x1a46 <__mulsf3x>
    18d2:	fe 01       	movw	r30, r28
    18d4:	e8 94       	clt
    18d6:	a5 91       	lpm	r26, Z+
    18d8:	25 91       	lpm	r18, Z+
    18da:	35 91       	lpm	r19, Z+
    18dc:	45 91       	lpm	r20, Z+
    18de:	55 91       	lpm	r21, Z+
    18e0:	a6 f3       	brts	.-24     	; 0x18ca <__fp_powser+0x16>
    18e2:	ef 01       	movw	r28, r30
    18e4:	0e 94 ad 0a 	call	0x155a	; 0x155a <__addsf3x>
    18e8:	fe 01       	movw	r30, r28
    18ea:	97 01       	movw	r18, r14
    18ec:	a8 01       	movw	r20, r16
    18ee:	da 94       	dec	r13
    18f0:	69 f7       	brne	.-38     	; 0x18cc <__fp_powser+0x18>
    18f2:	df 90       	pop	r13
    18f4:	ef 90       	pop	r14
    18f6:	ff 90       	pop	r15
    18f8:	0f 91       	pop	r16
    18fa:	1f 91       	pop	r17
    18fc:	cf 91       	pop	r28
    18fe:	df 91       	pop	r29
    1900:	08 95       	ret

00001902 <__fp_pscA>:
    1902:	00 24       	eor	r0, r0
    1904:	0a 94       	dec	r0
    1906:	16 16       	cp	r1, r22
    1908:	17 06       	cpc	r1, r23
    190a:	18 06       	cpc	r1, r24
    190c:	09 06       	cpc	r0, r25
    190e:	08 95       	ret

00001910 <__fp_pscB>:
    1910:	00 24       	eor	r0, r0
    1912:	0a 94       	dec	r0
    1914:	12 16       	cp	r1, r18
    1916:	13 06       	cpc	r1, r19
    1918:	14 06       	cpc	r1, r20
    191a:	05 06       	cpc	r0, r21
    191c:	08 95       	ret
    191e:	0c 94 57 0c 	jmp	0x18ae	; 0x18ae <__fp_nan>

00001922 <__fp_rempio2>:
    1922:	0e 94 e7 0c 	call	0x19ce	; 0x19ce <__fp_splitA>
    1926:	d8 f3       	brcs	.-10     	; 0x191e <__fp_pscB+0xe>
    1928:	e8 94       	clt
    192a:	e0 e0       	ldi	r30, 0x00	; 0
    192c:	bb 27       	eor	r27, r27
    192e:	9f 57       	subi	r25, 0x7F	; 127
    1930:	f0 f0       	brcs	.+60     	; 0x196e <__fp_rempio2+0x4c>
    1932:	2a ed       	ldi	r18, 0xDA	; 218
    1934:	3f e0       	ldi	r19, 0x0F	; 15
    1936:	49 ec       	ldi	r20, 0xC9	; 201
    1938:	06 c0       	rjmp	.+12     	; 0x1946 <__fp_rempio2+0x24>
    193a:	ee 0f       	add	r30, r30
    193c:	bb 0f       	add	r27, r27
    193e:	66 1f       	adc	r22, r22
    1940:	77 1f       	adc	r23, r23
    1942:	88 1f       	adc	r24, r24
    1944:	28 f0       	brcs	.+10     	; 0x1950 <__fp_rempio2+0x2e>
    1946:	b2 3a       	cpi	r27, 0xA2	; 162
    1948:	62 07       	cpc	r22, r18
    194a:	73 07       	cpc	r23, r19
    194c:	84 07       	cpc	r24, r20
    194e:	28 f0       	brcs	.+10     	; 0x195a <__fp_rempio2+0x38>
    1950:	b2 5a       	subi	r27, 0xA2	; 162
    1952:	62 0b       	sbc	r22, r18
    1954:	73 0b       	sbc	r23, r19
    1956:	84 0b       	sbc	r24, r20
    1958:	e3 95       	inc	r30
    195a:	9a 95       	dec	r25
    195c:	72 f7       	brpl	.-36     	; 0x193a <__fp_rempio2+0x18>
    195e:	80 38       	cpi	r24, 0x80	; 128
    1960:	30 f4       	brcc	.+12     	; 0x196e <__fp_rempio2+0x4c>
    1962:	9a 95       	dec	r25
    1964:	bb 0f       	add	r27, r27
    1966:	66 1f       	adc	r22, r22
    1968:	77 1f       	adc	r23, r23
    196a:	88 1f       	adc	r24, r24
    196c:	d2 f7       	brpl	.-12     	; 0x1962 <__fp_rempio2+0x40>
    196e:	90 48       	sbci	r25, 0x80	; 128
    1970:	0c 94 d1 0d 	jmp	0x1ba2	; 0x1ba2 <__fp_mpack_finite>

00001974 <__fp_round>:
    1974:	09 2e       	mov	r0, r25
    1976:	03 94       	inc	r0
    1978:	00 0c       	add	r0, r0
    197a:	11 f4       	brne	.+4      	; 0x1980 <__fp_round+0xc>
    197c:	88 23       	and	r24, r24
    197e:	52 f0       	brmi	.+20     	; 0x1994 <__fp_round+0x20>
    1980:	bb 0f       	add	r27, r27
    1982:	40 f4       	brcc	.+16     	; 0x1994 <__fp_round+0x20>
    1984:	bf 2b       	or	r27, r31
    1986:	11 f4       	brne	.+4      	; 0x198c <__fp_round+0x18>
    1988:	60 ff       	sbrs	r22, 0
    198a:	04 c0       	rjmp	.+8      	; 0x1994 <__fp_round+0x20>
    198c:	6f 5f       	subi	r22, 0xFF	; 255
    198e:	7f 4f       	sbci	r23, 0xFF	; 255
    1990:	8f 4f       	sbci	r24, 0xFF	; 255
    1992:	9f 4f       	sbci	r25, 0xFF	; 255
    1994:	08 95       	ret

00001996 <__fp_sinus>:
    1996:	ef 93       	push	r30
    1998:	e0 ff       	sbrs	r30, 0
    199a:	07 c0       	rjmp	.+14     	; 0x19aa <__fp_sinus+0x14>
    199c:	a2 ea       	ldi	r26, 0xA2	; 162
    199e:	2a ed       	ldi	r18, 0xDA	; 218
    19a0:	3f e0       	ldi	r19, 0x0F	; 15
    19a2:	49 ec       	ldi	r20, 0xC9	; 201
    19a4:	5f eb       	ldi	r21, 0xBF	; 191
    19a6:	0e 94 ad 0a 	call	0x155a	; 0x155a <__addsf3x>
    19aa:	0e 94 ba 0c 	call	0x1974	; 0x1974 <__fp_round>
    19ae:	0f 90       	pop	r0
    19b0:	03 94       	inc	r0
    19b2:	01 fc       	sbrc	r0, 1
    19b4:	90 58       	subi	r25, 0x80	; 128
    19b6:	e5 e9       	ldi	r30, 0x95	; 149
    19b8:	f0 e0       	ldi	r31, 0x00	; 0
    19ba:	0c 94 e4 0d 	jmp	0x1bc8	; 0x1bc8 <__fp_powsodd>

000019be <__fp_split3>:
    19be:	57 fd       	sbrc	r21, 7
    19c0:	90 58       	subi	r25, 0x80	; 128
    19c2:	44 0f       	add	r20, r20
    19c4:	55 1f       	adc	r21, r21
    19c6:	59 f0       	breq	.+22     	; 0x19de <__fp_splitA+0x10>
    19c8:	5f 3f       	cpi	r21, 0xFF	; 255
    19ca:	71 f0       	breq	.+28     	; 0x19e8 <__fp_splitA+0x1a>
    19cc:	47 95       	ror	r20

000019ce <__fp_splitA>:
    19ce:	88 0f       	add	r24, r24
    19d0:	97 fb       	bst	r25, 7
    19d2:	99 1f       	adc	r25, r25
    19d4:	61 f0       	breq	.+24     	; 0x19ee <__fp_splitA+0x20>
    19d6:	9f 3f       	cpi	r25, 0xFF	; 255
    19d8:	79 f0       	breq	.+30     	; 0x19f8 <__fp_splitA+0x2a>
    19da:	87 95       	ror	r24
    19dc:	08 95       	ret
    19de:	12 16       	cp	r1, r18
    19e0:	13 06       	cpc	r1, r19
    19e2:	14 06       	cpc	r1, r20
    19e4:	55 1f       	adc	r21, r21
    19e6:	f2 cf       	rjmp	.-28     	; 0x19cc <__fp_split3+0xe>
    19e8:	46 95       	lsr	r20
    19ea:	f1 df       	rcall	.-30     	; 0x19ce <__fp_splitA>
    19ec:	08 c0       	rjmp	.+16     	; 0x19fe <__fp_splitA+0x30>
    19ee:	16 16       	cp	r1, r22
    19f0:	17 06       	cpc	r1, r23
    19f2:	18 06       	cpc	r1, r24
    19f4:	99 1f       	adc	r25, r25
    19f6:	f1 cf       	rjmp	.-30     	; 0x19da <__fp_splitA+0xc>
    19f8:	86 95       	lsr	r24
    19fa:	71 05       	cpc	r23, r1
    19fc:	61 05       	cpc	r22, r1
    19fe:	08 94       	sec
    1a00:	08 95       	ret

00001a02 <__fp_zero>:
    1a02:	e8 94       	clt

00001a04 <__fp_szero>:
    1a04:	bb 27       	eor	r27, r27
    1a06:	66 27       	eor	r22, r22
    1a08:	77 27       	eor	r23, r23
    1a0a:	cb 01       	movw	r24, r22
    1a0c:	97 f9       	bld	r25, 7
    1a0e:	08 95       	ret

00001a10 <inverse>:
    1a10:	9b 01       	movw	r18, r22
    1a12:	ac 01       	movw	r20, r24
    1a14:	60 e0       	ldi	r22, 0x00	; 0
    1a16:	70 e0       	ldi	r23, 0x00	; 0
    1a18:	80 e8       	ldi	r24, 0x80	; 128
    1a1a:	9f e3       	ldi	r25, 0x3F	; 63
    1a1c:	0c 94 7e 0b 	jmp	0x16fc	; 0x16fc <__divsf3>

00001a20 <__mulsf3>:
    1a20:	0e 94 23 0d 	call	0x1a46	; 0x1a46 <__mulsf3x>
    1a24:	0c 94 ba 0c 	jmp	0x1974	; 0x1974 <__fp_round>
    1a28:	0e 94 81 0c 	call	0x1902	; 0x1902 <__fp_pscA>
    1a2c:	38 f0       	brcs	.+14     	; 0x1a3c <__mulsf3+0x1c>
    1a2e:	0e 94 88 0c 	call	0x1910	; 0x1910 <__fp_pscB>
    1a32:	20 f0       	brcs	.+8      	; 0x1a3c <__mulsf3+0x1c>
    1a34:	95 23       	and	r25, r21
    1a36:	11 f0       	breq	.+4      	; 0x1a3c <__mulsf3+0x1c>
    1a38:	0c 94 51 0c 	jmp	0x18a2	; 0x18a2 <__fp_inf>
    1a3c:	0c 94 57 0c 	jmp	0x18ae	; 0x18ae <__fp_nan>
    1a40:	11 24       	eor	r1, r1
    1a42:	0c 94 02 0d 	jmp	0x1a04	; 0x1a04 <__fp_szero>

00001a46 <__mulsf3x>:
    1a46:	0e 94 df 0c 	call	0x19be	; 0x19be <__fp_split3>
    1a4a:	70 f3       	brcs	.-36     	; 0x1a28 <__mulsf3+0x8>

00001a4c <__mulsf3_pse>:
    1a4c:	95 9f       	mul	r25, r21
    1a4e:	c1 f3       	breq	.-16     	; 0x1a40 <__mulsf3+0x20>
    1a50:	95 0f       	add	r25, r21
    1a52:	50 e0       	ldi	r21, 0x00	; 0
    1a54:	55 1f       	adc	r21, r21
    1a56:	62 9f       	mul	r22, r18
    1a58:	f0 01       	movw	r30, r0
    1a5a:	72 9f       	mul	r23, r18
    1a5c:	bb 27       	eor	r27, r27
    1a5e:	f0 0d       	add	r31, r0
    1a60:	b1 1d       	adc	r27, r1
    1a62:	63 9f       	mul	r22, r19
    1a64:	aa 27       	eor	r26, r26
    1a66:	f0 0d       	add	r31, r0
    1a68:	b1 1d       	adc	r27, r1
    1a6a:	aa 1f       	adc	r26, r26
    1a6c:	64 9f       	mul	r22, r20
    1a6e:	66 27       	eor	r22, r22
    1a70:	b0 0d       	add	r27, r0
    1a72:	a1 1d       	adc	r26, r1
    1a74:	66 1f       	adc	r22, r22
    1a76:	82 9f       	mul	r24, r18
    1a78:	22 27       	eor	r18, r18
    1a7a:	b0 0d       	add	r27, r0
    1a7c:	a1 1d       	adc	r26, r1
    1a7e:	62 1f       	adc	r22, r18
    1a80:	73 9f       	mul	r23, r19
    1a82:	b0 0d       	add	r27, r0
    1a84:	a1 1d       	adc	r26, r1
    1a86:	62 1f       	adc	r22, r18
    1a88:	83 9f       	mul	r24, r19
    1a8a:	a0 0d       	add	r26, r0
    1a8c:	61 1d       	adc	r22, r1
    1a8e:	22 1f       	adc	r18, r18
    1a90:	74 9f       	mul	r23, r20
    1a92:	33 27       	eor	r19, r19
    1a94:	a0 0d       	add	r26, r0
    1a96:	61 1d       	adc	r22, r1
    1a98:	23 1f       	adc	r18, r19
    1a9a:	84 9f       	mul	r24, r20
    1a9c:	60 0d       	add	r22, r0
    1a9e:	21 1d       	adc	r18, r1
    1aa0:	82 2f       	mov	r24, r18
    1aa2:	76 2f       	mov	r23, r22
    1aa4:	6a 2f       	mov	r22, r26
    1aa6:	11 24       	eor	r1, r1
    1aa8:	9f 57       	subi	r25, 0x7F	; 127
    1aaa:	50 40       	sbci	r21, 0x00	; 0
    1aac:	9a f0       	brmi	.+38     	; 0x1ad4 <__mulsf3_pse+0x88>
    1aae:	f1 f0       	breq	.+60     	; 0x1aec <__mulsf3_pse+0xa0>
    1ab0:	88 23       	and	r24, r24
    1ab2:	4a f0       	brmi	.+18     	; 0x1ac6 <__mulsf3_pse+0x7a>
    1ab4:	ee 0f       	add	r30, r30
    1ab6:	ff 1f       	adc	r31, r31
    1ab8:	bb 1f       	adc	r27, r27
    1aba:	66 1f       	adc	r22, r22
    1abc:	77 1f       	adc	r23, r23
    1abe:	88 1f       	adc	r24, r24
    1ac0:	91 50       	subi	r25, 0x01	; 1
    1ac2:	50 40       	sbci	r21, 0x00	; 0
    1ac4:	a9 f7       	brne	.-22     	; 0x1ab0 <__mulsf3_pse+0x64>
    1ac6:	9e 3f       	cpi	r25, 0xFE	; 254
    1ac8:	51 05       	cpc	r21, r1
    1aca:	80 f0       	brcs	.+32     	; 0x1aec <__mulsf3_pse+0xa0>
    1acc:	0c 94 51 0c 	jmp	0x18a2	; 0x18a2 <__fp_inf>
    1ad0:	0c 94 02 0d 	jmp	0x1a04	; 0x1a04 <__fp_szero>
    1ad4:	5f 3f       	cpi	r21, 0xFF	; 255
    1ad6:	e4 f3       	brlt	.-8      	; 0x1ad0 <__mulsf3_pse+0x84>
    1ad8:	98 3e       	cpi	r25, 0xE8	; 232
    1ada:	d4 f3       	brlt	.-12     	; 0x1ad0 <__mulsf3_pse+0x84>
    1adc:	86 95       	lsr	r24
    1ade:	77 95       	ror	r23
    1ae0:	67 95       	ror	r22
    1ae2:	b7 95       	ror	r27
    1ae4:	f7 95       	ror	r31
    1ae6:	e7 95       	ror	r30
    1ae8:	9f 5f       	subi	r25, 0xFF	; 255
    1aea:	c1 f7       	brne	.-16     	; 0x1adc <__mulsf3_pse+0x90>
    1aec:	fe 2b       	or	r31, r30
    1aee:	88 0f       	add	r24, r24
    1af0:	91 1d       	adc	r25, r1
    1af2:	96 95       	lsr	r25
    1af4:	87 95       	ror	r24
    1af6:	97 f9       	bld	r25, 7
    1af8:	08 95       	ret

00001afa <sin>:
    1afa:	9f 93       	push	r25
    1afc:	0e 94 91 0c 	call	0x1922	; 0x1922 <__fp_rempio2>
    1b00:	0f 90       	pop	r0
    1b02:	07 fc       	sbrc	r0, 7
    1b04:	ee 5f       	subi	r30, 0xFE	; 254
    1b06:	0c 94 cb 0c 	jmp	0x1996	; 0x1996 <__fp_sinus>
    1b0a:	19 f4       	brne	.+6      	; 0x1b12 <sin+0x18>
    1b0c:	16 f4       	brtc	.+4      	; 0x1b12 <sin+0x18>
    1b0e:	0c 94 57 0c 	jmp	0x18ae	; 0x18ae <__fp_nan>
    1b12:	0c 94 cf 0d 	jmp	0x1b9e	; 0x1b9e <__fp_mpack>

00001b16 <sqrt>:
    1b16:	0e 94 e7 0c 	call	0x19ce	; 0x19ce <__fp_splitA>
    1b1a:	b8 f3       	brcs	.-18     	; 0x1b0a <sin+0x10>
    1b1c:	99 23       	and	r25, r25
    1b1e:	c9 f3       	breq	.-14     	; 0x1b12 <sin+0x18>
    1b20:	b6 f3       	brts	.-20     	; 0x1b0e <sin+0x14>
    1b22:	9f 57       	subi	r25, 0x7F	; 127
    1b24:	55 0b       	sbc	r21, r21
    1b26:	87 ff       	sbrs	r24, 7
    1b28:	0e 94 dd 0d 	call	0x1bba	; 0x1bba <__fp_norm2>
    1b2c:	00 24       	eor	r0, r0
    1b2e:	a0 e6       	ldi	r26, 0x60	; 96
    1b30:	40 ea       	ldi	r20, 0xA0	; 160
    1b32:	90 01       	movw	r18, r0
    1b34:	80 58       	subi	r24, 0x80	; 128
    1b36:	56 95       	lsr	r21
    1b38:	97 95       	ror	r25
    1b3a:	28 f4       	brcc	.+10     	; 0x1b46 <sqrt+0x30>
    1b3c:	80 5c       	subi	r24, 0xC0	; 192
    1b3e:	66 0f       	add	r22, r22
    1b40:	77 1f       	adc	r23, r23
    1b42:	88 1f       	adc	r24, r24
    1b44:	20 f0       	brcs	.+8      	; 0x1b4e <sqrt+0x38>
    1b46:	26 17       	cp	r18, r22
    1b48:	37 07       	cpc	r19, r23
    1b4a:	48 07       	cpc	r20, r24
    1b4c:	30 f4       	brcc	.+12     	; 0x1b5a <sqrt+0x44>
    1b4e:	62 1b       	sub	r22, r18
    1b50:	73 0b       	sbc	r23, r19
    1b52:	84 0b       	sbc	r24, r20
    1b54:	20 29       	or	r18, r0
    1b56:	31 29       	or	r19, r1
    1b58:	4a 2b       	or	r20, r26
    1b5a:	a6 95       	lsr	r26
    1b5c:	17 94       	ror	r1
    1b5e:	07 94       	ror	r0
    1b60:	20 25       	eor	r18, r0
    1b62:	31 25       	eor	r19, r1
    1b64:	4a 27       	eor	r20, r26
    1b66:	58 f7       	brcc	.-42     	; 0x1b3e <sqrt+0x28>
    1b68:	66 0f       	add	r22, r22
    1b6a:	77 1f       	adc	r23, r23
    1b6c:	88 1f       	adc	r24, r24
    1b6e:	20 f0       	brcs	.+8      	; 0x1b78 <sqrt+0x62>
    1b70:	26 17       	cp	r18, r22
    1b72:	37 07       	cpc	r19, r23
    1b74:	48 07       	cpc	r20, r24
    1b76:	30 f4       	brcc	.+12     	; 0x1b84 <sqrt+0x6e>
    1b78:	62 0b       	sbc	r22, r18
    1b7a:	73 0b       	sbc	r23, r19
    1b7c:	84 0b       	sbc	r24, r20
    1b7e:	20 0d       	add	r18, r0
    1b80:	31 1d       	adc	r19, r1
    1b82:	41 1d       	adc	r20, r1
    1b84:	a0 95       	com	r26
    1b86:	81 f7       	brne	.-32     	; 0x1b68 <sqrt+0x52>
    1b88:	b9 01       	movw	r22, r18
    1b8a:	84 2f       	mov	r24, r20
    1b8c:	91 58       	subi	r25, 0x81	; 129
    1b8e:	88 0f       	add	r24, r24
    1b90:	96 95       	lsr	r25
    1b92:	87 95       	ror	r24
    1b94:	08 95       	ret

00001b96 <square>:
    1b96:	9b 01       	movw	r18, r22
    1b98:	ac 01       	movw	r20, r24
    1b9a:	0c 94 10 0d 	jmp	0x1a20	; 0x1a20 <__mulsf3>

00001b9e <__fp_mpack>:
    1b9e:	9f 3f       	cpi	r25, 0xFF	; 255
    1ba0:	31 f0       	breq	.+12     	; 0x1bae <__fp_mpack_finite+0xc>

00001ba2 <__fp_mpack_finite>:
    1ba2:	91 50       	subi	r25, 0x01	; 1
    1ba4:	20 f4       	brcc	.+8      	; 0x1bae <__fp_mpack_finite+0xc>
    1ba6:	87 95       	ror	r24
    1ba8:	77 95       	ror	r23
    1baa:	67 95       	ror	r22
    1bac:	b7 95       	ror	r27
    1bae:	88 0f       	add	r24, r24
    1bb0:	91 1d       	adc	r25, r1
    1bb2:	96 95       	lsr	r25
    1bb4:	87 95       	ror	r24
    1bb6:	97 f9       	bld	r25, 7
    1bb8:	08 95       	ret

00001bba <__fp_norm2>:
    1bba:	91 50       	subi	r25, 0x01	; 1
    1bbc:	50 40       	sbci	r21, 0x00	; 0
    1bbe:	66 0f       	add	r22, r22
    1bc0:	77 1f       	adc	r23, r23
    1bc2:	88 1f       	adc	r24, r24
    1bc4:	d2 f7       	brpl	.-12     	; 0x1bba <__fp_norm2>
    1bc6:	08 95       	ret

00001bc8 <__fp_powsodd>:
    1bc8:	9f 93       	push	r25
    1bca:	8f 93       	push	r24
    1bcc:	7f 93       	push	r23
    1bce:	6f 93       	push	r22
    1bd0:	ff 93       	push	r31
    1bd2:	ef 93       	push	r30
    1bd4:	9b 01       	movw	r18, r22
    1bd6:	ac 01       	movw	r20, r24
    1bd8:	0e 94 10 0d 	call	0x1a20	; 0x1a20 <__mulsf3>
    1bdc:	ef 91       	pop	r30
    1bde:	ff 91       	pop	r31
    1be0:	0e 94 5a 0c 	call	0x18b4	; 0x18b4 <__fp_powser>
    1be4:	2f 91       	pop	r18
    1be6:	3f 91       	pop	r19
    1be8:	4f 91       	pop	r20
    1bea:	5f 91       	pop	r21
    1bec:	0c 94 10 0d 	jmp	0x1a20	; 0x1a20 <__mulsf3>

00001bf0 <vfprintf>:
    1bf0:	a3 e1       	ldi	r26, 0x13	; 19
    1bf2:	b0 e0       	ldi	r27, 0x00	; 0
    1bf4:	ee ef       	ldi	r30, 0xFE	; 254
    1bf6:	fd e0       	ldi	r31, 0x0D	; 13
    1bf8:	0c 94 93 11 	jmp	0x2326	; 0x2326 <__prologue_saves__>
    1bfc:	6c 01       	movw	r12, r24
    1bfe:	4b 01       	movw	r8, r22
    1c00:	2a 01       	movw	r4, r20
    1c02:	fc 01       	movw	r30, r24
    1c04:	17 82       	std	Z+7, r1	; 0x07
    1c06:	16 82       	std	Z+6, r1	; 0x06
    1c08:	83 81       	ldd	r24, Z+3	; 0x03
    1c0a:	81 ff       	sbrs	r24, 1
    1c0c:	43 c3       	rjmp	.+1670   	; 0x2294 <vfprintf+0x6a4>
    1c0e:	ae 01       	movw	r20, r28
    1c10:	4f 5f       	subi	r20, 0xFF	; 255
    1c12:	5f 4f       	sbci	r21, 0xFF	; 255
    1c14:	3a 01       	movw	r6, r20
    1c16:	f6 01       	movw	r30, r12
    1c18:	93 81       	ldd	r25, Z+3	; 0x03
    1c1a:	f4 01       	movw	r30, r8
    1c1c:	93 fd       	sbrc	r25, 3
    1c1e:	85 91       	lpm	r24, Z+
    1c20:	93 ff       	sbrs	r25, 3
    1c22:	81 91       	ld	r24, Z+
    1c24:	4f 01       	movw	r8, r30
    1c26:	88 23       	and	r24, r24
    1c28:	09 f4       	brne	.+2      	; 0x1c2c <vfprintf+0x3c>
    1c2a:	30 c3       	rjmp	.+1632   	; 0x228c <vfprintf+0x69c>
    1c2c:	85 32       	cpi	r24, 0x25	; 37
    1c2e:	39 f4       	brne	.+14     	; 0x1c3e <vfprintf+0x4e>
    1c30:	93 fd       	sbrc	r25, 3
    1c32:	85 91       	lpm	r24, Z+
    1c34:	93 ff       	sbrs	r25, 3
    1c36:	81 91       	ld	r24, Z+
    1c38:	4f 01       	movw	r8, r30
    1c3a:	85 32       	cpi	r24, 0x25	; 37
    1c3c:	39 f4       	brne	.+14     	; 0x1c4c <vfprintf+0x5c>
    1c3e:	b6 01       	movw	r22, r12
    1c40:	90 e0       	ldi	r25, 0x00	; 0
    1c42:	0e 94 da 12 	call	0x25b4	; 0x25b4 <fputc>
    1c46:	52 01       	movw	r10, r4
    1c48:	25 01       	movw	r4, r10
    1c4a:	e5 cf       	rjmp	.-54     	; 0x1c16 <vfprintf+0x26>
    1c4c:	10 e0       	ldi	r17, 0x00	; 0
    1c4e:	f1 2c       	mov	r15, r1
    1c50:	20 e0       	ldi	r18, 0x00	; 0
    1c52:	20 32       	cpi	r18, 0x20	; 32
    1c54:	a0 f4       	brcc	.+40     	; 0x1c7e <vfprintf+0x8e>
    1c56:	8b 32       	cpi	r24, 0x2B	; 43
    1c58:	69 f0       	breq	.+26     	; 0x1c74 <vfprintf+0x84>
    1c5a:	30 f4       	brcc	.+12     	; 0x1c68 <vfprintf+0x78>
    1c5c:	80 32       	cpi	r24, 0x20	; 32
    1c5e:	59 f0       	breq	.+22     	; 0x1c76 <vfprintf+0x86>
    1c60:	83 32       	cpi	r24, 0x23	; 35
    1c62:	69 f4       	brne	.+26     	; 0x1c7e <vfprintf+0x8e>
    1c64:	20 61       	ori	r18, 0x10	; 16
    1c66:	2c c0       	rjmp	.+88     	; 0x1cc0 <vfprintf+0xd0>
    1c68:	8d 32       	cpi	r24, 0x2D	; 45
    1c6a:	39 f0       	breq	.+14     	; 0x1c7a <vfprintf+0x8a>
    1c6c:	80 33       	cpi	r24, 0x30	; 48
    1c6e:	39 f4       	brne	.+14     	; 0x1c7e <vfprintf+0x8e>
    1c70:	21 60       	ori	r18, 0x01	; 1
    1c72:	26 c0       	rjmp	.+76     	; 0x1cc0 <vfprintf+0xd0>
    1c74:	22 60       	ori	r18, 0x02	; 2
    1c76:	24 60       	ori	r18, 0x04	; 4
    1c78:	23 c0       	rjmp	.+70     	; 0x1cc0 <vfprintf+0xd0>
    1c7a:	28 60       	ori	r18, 0x08	; 8
    1c7c:	21 c0       	rjmp	.+66     	; 0x1cc0 <vfprintf+0xd0>
    1c7e:	27 fd       	sbrc	r18, 7
    1c80:	27 c0       	rjmp	.+78     	; 0x1cd0 <vfprintf+0xe0>
    1c82:	30 ed       	ldi	r19, 0xD0	; 208
    1c84:	38 0f       	add	r19, r24
    1c86:	3a 30       	cpi	r19, 0x0A	; 10
    1c88:	78 f4       	brcc	.+30     	; 0x1ca8 <vfprintf+0xb8>
    1c8a:	26 ff       	sbrs	r18, 6
    1c8c:	06 c0       	rjmp	.+12     	; 0x1c9a <vfprintf+0xaa>
    1c8e:	fa e0       	ldi	r31, 0x0A	; 10
    1c90:	1f 9f       	mul	r17, r31
    1c92:	30 0d       	add	r19, r0
    1c94:	11 24       	eor	r1, r1
    1c96:	13 2f       	mov	r17, r19
    1c98:	13 c0       	rjmp	.+38     	; 0x1cc0 <vfprintf+0xd0>
    1c9a:	4a e0       	ldi	r20, 0x0A	; 10
    1c9c:	f4 9e       	mul	r15, r20
    1c9e:	30 0d       	add	r19, r0
    1ca0:	11 24       	eor	r1, r1
    1ca2:	f3 2e       	mov	r15, r19
    1ca4:	20 62       	ori	r18, 0x20	; 32
    1ca6:	0c c0       	rjmp	.+24     	; 0x1cc0 <vfprintf+0xd0>
    1ca8:	8e 32       	cpi	r24, 0x2E	; 46
    1caa:	21 f4       	brne	.+8      	; 0x1cb4 <vfprintf+0xc4>
    1cac:	26 fd       	sbrc	r18, 6
    1cae:	ee c2       	rjmp	.+1500   	; 0x228c <vfprintf+0x69c>
    1cb0:	20 64       	ori	r18, 0x40	; 64
    1cb2:	06 c0       	rjmp	.+12     	; 0x1cc0 <vfprintf+0xd0>
    1cb4:	8c 36       	cpi	r24, 0x6C	; 108
    1cb6:	11 f4       	brne	.+4      	; 0x1cbc <vfprintf+0xcc>
    1cb8:	20 68       	ori	r18, 0x80	; 128
    1cba:	02 c0       	rjmp	.+4      	; 0x1cc0 <vfprintf+0xd0>
    1cbc:	88 36       	cpi	r24, 0x68	; 104
    1cbe:	41 f4       	brne	.+16     	; 0x1cd0 <vfprintf+0xe0>
    1cc0:	f4 01       	movw	r30, r8
    1cc2:	93 fd       	sbrc	r25, 3
    1cc4:	85 91       	lpm	r24, Z+
    1cc6:	93 ff       	sbrs	r25, 3
    1cc8:	81 91       	ld	r24, Z+
    1cca:	4f 01       	movw	r8, r30
    1ccc:	81 11       	cpse	r24, r1
    1cce:	c1 cf       	rjmp	.-126    	; 0x1c52 <vfprintf+0x62>
    1cd0:	9b eb       	ldi	r25, 0xBB	; 187
    1cd2:	98 0f       	add	r25, r24
    1cd4:	93 30       	cpi	r25, 0x03	; 3
    1cd6:	18 f4       	brcc	.+6      	; 0x1cde <vfprintf+0xee>
    1cd8:	20 61       	ori	r18, 0x10	; 16
    1cda:	80 5e       	subi	r24, 0xE0	; 224
    1cdc:	06 c0       	rjmp	.+12     	; 0x1cea <vfprintf+0xfa>
    1cde:	9b e9       	ldi	r25, 0x9B	; 155
    1ce0:	98 0f       	add	r25, r24
    1ce2:	93 30       	cpi	r25, 0x03	; 3
    1ce4:	08 f0       	brcs	.+2      	; 0x1ce8 <vfprintf+0xf8>
    1ce6:	71 c1       	rjmp	.+738    	; 0x1fca <vfprintf+0x3da>
    1ce8:	2f 7e       	andi	r18, 0xEF	; 239
    1cea:	26 ff       	sbrs	r18, 6
    1cec:	16 e0       	ldi	r17, 0x06	; 6
    1cee:	2f 73       	andi	r18, 0x3F	; 63
    1cf0:	32 2e       	mov	r3, r18
    1cf2:	85 36       	cpi	r24, 0x65	; 101
    1cf4:	19 f4       	brne	.+6      	; 0x1cfc <vfprintf+0x10c>
    1cf6:	20 64       	ori	r18, 0x40	; 64
    1cf8:	32 2e       	mov	r3, r18
    1cfa:	08 c0       	rjmp	.+16     	; 0x1d0c <vfprintf+0x11c>
    1cfc:	86 36       	cpi	r24, 0x66	; 102
    1cfe:	21 f4       	brne	.+8      	; 0x1d08 <vfprintf+0x118>
    1d00:	f2 2f       	mov	r31, r18
    1d02:	f0 68       	ori	r31, 0x80	; 128
    1d04:	3f 2e       	mov	r3, r31
    1d06:	02 c0       	rjmp	.+4      	; 0x1d0c <vfprintf+0x11c>
    1d08:	11 11       	cpse	r17, r1
    1d0a:	11 50       	subi	r17, 0x01	; 1
    1d0c:	37 fe       	sbrs	r3, 7
    1d0e:	07 c0       	rjmp	.+14     	; 0x1d1e <vfprintf+0x12e>
    1d10:	1c 33       	cpi	r17, 0x3C	; 60
    1d12:	50 f4       	brcc	.+20     	; 0x1d28 <vfprintf+0x138>
    1d14:	ee 24       	eor	r14, r14
    1d16:	e3 94       	inc	r14
    1d18:	e1 0e       	add	r14, r17
    1d1a:	27 e0       	ldi	r18, 0x07	; 7
    1d1c:	0b c0       	rjmp	.+22     	; 0x1d34 <vfprintf+0x144>
    1d1e:	18 30       	cpi	r17, 0x08	; 8
    1d20:	38 f0       	brcs	.+14     	; 0x1d30 <vfprintf+0x140>
    1d22:	27 e0       	ldi	r18, 0x07	; 7
    1d24:	17 e0       	ldi	r17, 0x07	; 7
    1d26:	05 c0       	rjmp	.+10     	; 0x1d32 <vfprintf+0x142>
    1d28:	27 e0       	ldi	r18, 0x07	; 7
    1d2a:	4c e3       	ldi	r20, 0x3C	; 60
    1d2c:	e4 2e       	mov	r14, r20
    1d2e:	02 c0       	rjmp	.+4      	; 0x1d34 <vfprintf+0x144>
    1d30:	21 2f       	mov	r18, r17
    1d32:	e1 2c       	mov	r14, r1
    1d34:	52 01       	movw	r10, r4
    1d36:	44 e0       	ldi	r20, 0x04	; 4
    1d38:	a4 0e       	add	r10, r20
    1d3a:	b1 1c       	adc	r11, r1
    1d3c:	f2 01       	movw	r30, r4
    1d3e:	60 81       	ld	r22, Z
    1d40:	71 81       	ldd	r23, Z+1	; 0x01
    1d42:	82 81       	ldd	r24, Z+2	; 0x02
    1d44:	93 81       	ldd	r25, Z+3	; 0x03
    1d46:	0e 2d       	mov	r16, r14
    1d48:	a3 01       	movw	r20, r6
    1d4a:	0e 94 ec 11 	call	0x23d8	; 0x23d8 <__ftoa_engine>
    1d4e:	2c 01       	movw	r4, r24
    1d50:	09 81       	ldd	r16, Y+1	; 0x01
    1d52:	00 ff       	sbrs	r16, 0
    1d54:	02 c0       	rjmp	.+4      	; 0x1d5a <vfprintf+0x16a>
    1d56:	03 ff       	sbrs	r16, 3
    1d58:	07 c0       	rjmp	.+14     	; 0x1d68 <vfprintf+0x178>
    1d5a:	31 fc       	sbrc	r3, 1
    1d5c:	08 c0       	rjmp	.+16     	; 0x1d6e <vfprintf+0x17e>
    1d5e:	32 fe       	sbrs	r3, 2
    1d60:	09 c0       	rjmp	.+18     	; 0x1d74 <vfprintf+0x184>
    1d62:	30 e2       	ldi	r19, 0x20	; 32
    1d64:	23 2e       	mov	r2, r19
    1d66:	07 c0       	rjmp	.+14     	; 0x1d76 <vfprintf+0x186>
    1d68:	2d e2       	ldi	r18, 0x2D	; 45
    1d6a:	22 2e       	mov	r2, r18
    1d6c:	04 c0       	rjmp	.+8      	; 0x1d76 <vfprintf+0x186>
    1d6e:	9b e2       	ldi	r25, 0x2B	; 43
    1d70:	29 2e       	mov	r2, r25
    1d72:	01 c0       	rjmp	.+2      	; 0x1d76 <vfprintf+0x186>
    1d74:	21 2c       	mov	r2, r1
    1d76:	80 2f       	mov	r24, r16
    1d78:	8c 70       	andi	r24, 0x0C	; 12
    1d7a:	19 f0       	breq	.+6      	; 0x1d82 <vfprintf+0x192>
    1d7c:	21 10       	cpse	r2, r1
    1d7e:	68 c2       	rjmp	.+1232   	; 0x2250 <vfprintf+0x660>
    1d80:	a8 c2       	rjmp	.+1360   	; 0x22d2 <vfprintf+0x6e2>
    1d82:	37 fe       	sbrs	r3, 7
    1d84:	0f c0       	rjmp	.+30     	; 0x1da4 <vfprintf+0x1b4>
    1d86:	e4 0c       	add	r14, r4
    1d88:	04 ff       	sbrs	r16, 4
    1d8a:	04 c0       	rjmp	.+8      	; 0x1d94 <vfprintf+0x1a4>
    1d8c:	8a 81       	ldd	r24, Y+2	; 0x02
    1d8e:	81 33       	cpi	r24, 0x31	; 49
    1d90:	09 f4       	brne	.+2      	; 0x1d94 <vfprintf+0x1a4>
    1d92:	ea 94       	dec	r14
    1d94:	1e 14       	cp	r1, r14
    1d96:	74 f5       	brge	.+92     	; 0x1df4 <vfprintf+0x204>
    1d98:	f8 e0       	ldi	r31, 0x08	; 8
    1d9a:	fe 15       	cp	r31, r14
    1d9c:	78 f5       	brcc	.+94     	; 0x1dfc <vfprintf+0x20c>
    1d9e:	88 e0       	ldi	r24, 0x08	; 8
    1da0:	e8 2e       	mov	r14, r24
    1da2:	2c c0       	rjmp	.+88     	; 0x1dfc <vfprintf+0x20c>
    1da4:	36 fc       	sbrc	r3, 6
    1da6:	2a c0       	rjmp	.+84     	; 0x1dfc <vfprintf+0x20c>
    1da8:	81 2f       	mov	r24, r17
    1daa:	90 e0       	ldi	r25, 0x00	; 0
    1dac:	84 15       	cp	r24, r4
    1dae:	95 05       	cpc	r25, r5
    1db0:	9c f0       	brlt	.+38     	; 0x1dd8 <vfprintf+0x1e8>
    1db2:	2c ef       	ldi	r18, 0xFC	; 252
    1db4:	42 16       	cp	r4, r18
    1db6:	2f ef       	ldi	r18, 0xFF	; 255
    1db8:	52 06       	cpc	r5, r18
    1dba:	74 f0       	brlt	.+28     	; 0x1dd8 <vfprintf+0x1e8>
    1dbc:	43 2d       	mov	r20, r3
    1dbe:	40 68       	ori	r20, 0x80	; 128
    1dc0:	34 2e       	mov	r3, r20
    1dc2:	0a c0       	rjmp	.+20     	; 0x1dd8 <vfprintf+0x1e8>
    1dc4:	e2 e0       	ldi	r30, 0x02	; 2
    1dc6:	f0 e0       	ldi	r31, 0x00	; 0
    1dc8:	ec 0f       	add	r30, r28
    1dca:	fd 1f       	adc	r31, r29
    1dcc:	e1 0f       	add	r30, r17
    1dce:	f1 1d       	adc	r31, r1
    1dd0:	80 81       	ld	r24, Z
    1dd2:	80 33       	cpi	r24, 0x30	; 48
    1dd4:	19 f4       	brne	.+6      	; 0x1ddc <vfprintf+0x1ec>
    1dd6:	11 50       	subi	r17, 0x01	; 1
    1dd8:	11 11       	cpse	r17, r1
    1dda:	f4 cf       	rjmp	.-24     	; 0x1dc4 <vfprintf+0x1d4>
    1ddc:	37 fe       	sbrs	r3, 7
    1dde:	0e c0       	rjmp	.+28     	; 0x1dfc <vfprintf+0x20c>
    1de0:	ee 24       	eor	r14, r14
    1de2:	e3 94       	inc	r14
    1de4:	e1 0e       	add	r14, r17
    1de6:	81 2f       	mov	r24, r17
    1de8:	90 e0       	ldi	r25, 0x00	; 0
    1dea:	48 16       	cp	r4, r24
    1dec:	59 06       	cpc	r5, r25
    1dee:	2c f4       	brge	.+10     	; 0x1dfa <vfprintf+0x20a>
    1df0:	14 19       	sub	r17, r4
    1df2:	04 c0       	rjmp	.+8      	; 0x1dfc <vfprintf+0x20c>
    1df4:	ee 24       	eor	r14, r14
    1df6:	e3 94       	inc	r14
    1df8:	01 c0       	rjmp	.+2      	; 0x1dfc <vfprintf+0x20c>
    1dfa:	10 e0       	ldi	r17, 0x00	; 0
    1dfc:	37 fe       	sbrs	r3, 7
    1dfe:	06 c0       	rjmp	.+12     	; 0x1e0c <vfprintf+0x21c>
    1e00:	14 14       	cp	r1, r4
    1e02:	15 04       	cpc	r1, r5
    1e04:	34 f4       	brge	.+12     	; 0x1e12 <vfprintf+0x222>
    1e06:	c2 01       	movw	r24, r4
    1e08:	01 96       	adiw	r24, 0x01	; 1
    1e0a:	05 c0       	rjmp	.+10     	; 0x1e16 <vfprintf+0x226>
    1e0c:	85 e0       	ldi	r24, 0x05	; 5
    1e0e:	90 e0       	ldi	r25, 0x00	; 0
    1e10:	02 c0       	rjmp	.+4      	; 0x1e16 <vfprintf+0x226>
    1e12:	81 e0       	ldi	r24, 0x01	; 1
    1e14:	90 e0       	ldi	r25, 0x00	; 0
    1e16:	21 10       	cpse	r2, r1
    1e18:	01 96       	adiw	r24, 0x01	; 1
    1e1a:	11 23       	and	r17, r17
    1e1c:	31 f0       	breq	.+12     	; 0x1e2a <vfprintf+0x23a>
    1e1e:	21 2f       	mov	r18, r17
    1e20:	30 e0       	ldi	r19, 0x00	; 0
    1e22:	2f 5f       	subi	r18, 0xFF	; 255
    1e24:	3f 4f       	sbci	r19, 0xFF	; 255
    1e26:	82 0f       	add	r24, r18
    1e28:	93 1f       	adc	r25, r19
    1e2a:	2f 2d       	mov	r18, r15
    1e2c:	30 e0       	ldi	r19, 0x00	; 0
    1e2e:	82 17       	cp	r24, r18
    1e30:	93 07       	cpc	r25, r19
    1e32:	14 f4       	brge	.+4      	; 0x1e38 <vfprintf+0x248>
    1e34:	f8 1a       	sub	r15, r24
    1e36:	01 c0       	rjmp	.+2      	; 0x1e3a <vfprintf+0x24a>
    1e38:	f1 2c       	mov	r15, r1
    1e3a:	83 2d       	mov	r24, r3
    1e3c:	89 70       	andi	r24, 0x09	; 9
    1e3e:	49 f4       	brne	.+18     	; 0x1e52 <vfprintf+0x262>
    1e40:	ff 20       	and	r15, r15
    1e42:	39 f0       	breq	.+14     	; 0x1e52 <vfprintf+0x262>
    1e44:	b6 01       	movw	r22, r12
    1e46:	80 e2       	ldi	r24, 0x20	; 32
    1e48:	90 e0       	ldi	r25, 0x00	; 0
    1e4a:	0e 94 da 12 	call	0x25b4	; 0x25b4 <fputc>
    1e4e:	fa 94       	dec	r15
    1e50:	f7 cf       	rjmp	.-18     	; 0x1e40 <vfprintf+0x250>
    1e52:	22 20       	and	r2, r2
    1e54:	29 f0       	breq	.+10     	; 0x1e60 <vfprintf+0x270>
    1e56:	b6 01       	movw	r22, r12
    1e58:	82 2d       	mov	r24, r2
    1e5a:	90 e0       	ldi	r25, 0x00	; 0
    1e5c:	0e 94 da 12 	call	0x25b4	; 0x25b4 <fputc>
    1e60:	33 fc       	sbrc	r3, 3
    1e62:	09 c0       	rjmp	.+18     	; 0x1e76 <vfprintf+0x286>
    1e64:	ff 20       	and	r15, r15
    1e66:	39 f0       	breq	.+14     	; 0x1e76 <vfprintf+0x286>
    1e68:	b6 01       	movw	r22, r12
    1e6a:	80 e3       	ldi	r24, 0x30	; 48
    1e6c:	90 e0       	ldi	r25, 0x00	; 0
    1e6e:	0e 94 da 12 	call	0x25b4	; 0x25b4 <fputc>
    1e72:	fa 94       	dec	r15
    1e74:	f7 cf       	rjmp	.-18     	; 0x1e64 <vfprintf+0x274>
    1e76:	37 fe       	sbrs	r3, 7
    1e78:	5a c0       	rjmp	.+180    	; 0x1f2e <vfprintf+0x33e>
    1e7a:	94 2d       	mov	r25, r4
    1e7c:	85 2d       	mov	r24, r5
    1e7e:	57 fe       	sbrs	r5, 7
    1e80:	02 c0       	rjmp	.+4      	; 0x1e86 <vfprintf+0x296>
    1e82:	90 e0       	ldi	r25, 0x00	; 0
    1e84:	80 e0       	ldi	r24, 0x00	; 0
    1e86:	29 2e       	mov	r2, r25
    1e88:	38 2e       	mov	r3, r24
    1e8a:	20 e0       	ldi	r18, 0x00	; 0
    1e8c:	30 e0       	ldi	r19, 0x00	; 0
    1e8e:	a2 01       	movw	r20, r4
    1e90:	4e 19       	sub	r20, r14
    1e92:	51 09       	sbc	r21, r1
    1e94:	5d 87       	std	Y+13, r21	; 0x0d
    1e96:	4c 87       	std	Y+12, r20	; 0x0c
    1e98:	a2 01       	movw	r20, r4
    1e9a:	42 19       	sub	r20, r2
    1e9c:	53 09       	sbc	r21, r3
    1e9e:	5f 87       	std	Y+15, r21	; 0x0f
    1ea0:	4e 87       	std	Y+14, r20	; 0x0e
    1ea2:	61 2f       	mov	r22, r17
    1ea4:	70 e0       	ldi	r23, 0x00	; 0
    1ea6:	44 27       	eor	r20, r20
    1ea8:	55 27       	eor	r21, r21
    1eaa:	46 1b       	sub	r20, r22
    1eac:	57 0b       	sbc	r21, r23
    1eae:	59 8b       	std	Y+17, r21	; 0x11
    1eb0:	48 8b       	std	Y+16, r20	; 0x10
    1eb2:	5f ef       	ldi	r21, 0xFF	; 255
    1eb4:	25 16       	cp	r2, r21
    1eb6:	35 06       	cpc	r3, r21
    1eb8:	49 f4       	brne	.+18     	; 0x1ecc <vfprintf+0x2dc>
    1eba:	b6 01       	movw	r22, r12
    1ebc:	8e e2       	ldi	r24, 0x2E	; 46
    1ebe:	90 e0       	ldi	r25, 0x00	; 0
    1ec0:	2a 8b       	std	Y+18, r18	; 0x12
    1ec2:	3b 8b       	std	Y+19, r19	; 0x13
    1ec4:	0e 94 da 12 	call	0x25b4	; 0x25b4 <fputc>
    1ec8:	3b 89       	ldd	r19, Y+19	; 0x13
    1eca:	2a 89       	ldd	r18, Y+18	; 0x12
    1ecc:	42 14       	cp	r4, r2
    1ece:	53 04       	cpc	r5, r3
    1ed0:	6c f0       	brlt	.+26     	; 0x1eec <vfprintf+0x2fc>
    1ed2:	4c 85       	ldd	r20, Y+12	; 0x0c
    1ed4:	5d 85       	ldd	r21, Y+13	; 0x0d
    1ed6:	42 15       	cp	r20, r2
    1ed8:	53 05       	cpc	r21, r3
    1eda:	44 f4       	brge	.+16     	; 0x1eec <vfprintf+0x2fc>
    1edc:	ee 85       	ldd	r30, Y+14	; 0x0e
    1ede:	ff 85       	ldd	r31, Y+15	; 0x0f
    1ee0:	e2 0f       	add	r30, r18
    1ee2:	f3 1f       	adc	r31, r19
    1ee4:	e6 0d       	add	r30, r6
    1ee6:	f7 1d       	adc	r31, r7
    1ee8:	81 81       	ldd	r24, Z+1	; 0x01
    1eea:	01 c0       	rjmp	.+2      	; 0x1eee <vfprintf+0x2fe>
    1eec:	80 e3       	ldi	r24, 0x30	; 48
    1eee:	51 e0       	ldi	r21, 0x01	; 1
    1ef0:	25 1a       	sub	r2, r21
    1ef2:	31 08       	sbc	r3, r1
    1ef4:	2f 5f       	subi	r18, 0xFF	; 255
    1ef6:	3f 4f       	sbci	r19, 0xFF	; 255
    1ef8:	48 89       	ldd	r20, Y+16	; 0x10
    1efa:	59 89       	ldd	r21, Y+17	; 0x11
    1efc:	24 16       	cp	r2, r20
    1efe:	35 06       	cpc	r3, r21
    1f00:	4c f0       	brlt	.+18     	; 0x1f14 <vfprintf+0x324>
    1f02:	b6 01       	movw	r22, r12
    1f04:	90 e0       	ldi	r25, 0x00	; 0
    1f06:	2a 8b       	std	Y+18, r18	; 0x12
    1f08:	3b 8b       	std	Y+19, r19	; 0x13
    1f0a:	0e 94 da 12 	call	0x25b4	; 0x25b4 <fputc>
    1f0e:	2a 89       	ldd	r18, Y+18	; 0x12
    1f10:	3b 89       	ldd	r19, Y+19	; 0x13
    1f12:	cf cf       	rjmp	.-98     	; 0x1eb2 <vfprintf+0x2c2>
    1f14:	24 14       	cp	r2, r4
    1f16:	35 04       	cpc	r3, r5
    1f18:	39 f4       	brne	.+14     	; 0x1f28 <vfprintf+0x338>
    1f1a:	9a 81       	ldd	r25, Y+2	; 0x02
    1f1c:	96 33       	cpi	r25, 0x36	; 54
    1f1e:	18 f4       	brcc	.+6      	; 0x1f26 <vfprintf+0x336>
    1f20:	95 33       	cpi	r25, 0x35	; 53
    1f22:	11 f4       	brne	.+4      	; 0x1f28 <vfprintf+0x338>
    1f24:	04 ff       	sbrs	r16, 4
    1f26:	81 e3       	ldi	r24, 0x31	; 49
    1f28:	b6 01       	movw	r22, r12
    1f2a:	90 e0       	ldi	r25, 0x00	; 0
    1f2c:	4b c0       	rjmp	.+150    	; 0x1fc4 <vfprintf+0x3d4>
    1f2e:	8a 81       	ldd	r24, Y+2	; 0x02
    1f30:	81 33       	cpi	r24, 0x31	; 49
    1f32:	09 f0       	breq	.+2      	; 0x1f36 <vfprintf+0x346>
    1f34:	0f 7e       	andi	r16, 0xEF	; 239
    1f36:	b6 01       	movw	r22, r12
    1f38:	90 e0       	ldi	r25, 0x00	; 0
    1f3a:	0e 94 da 12 	call	0x25b4	; 0x25b4 <fputc>
    1f3e:	11 11       	cpse	r17, r1
    1f40:	05 c0       	rjmp	.+10     	; 0x1f4c <vfprintf+0x35c>
    1f42:	34 fc       	sbrc	r3, 4
    1f44:	18 c0       	rjmp	.+48     	; 0x1f76 <vfprintf+0x386>
    1f46:	85 e6       	ldi	r24, 0x65	; 101
    1f48:	90 e0       	ldi	r25, 0x00	; 0
    1f4a:	17 c0       	rjmp	.+46     	; 0x1f7a <vfprintf+0x38a>
    1f4c:	b6 01       	movw	r22, r12
    1f4e:	8e e2       	ldi	r24, 0x2E	; 46
    1f50:	90 e0       	ldi	r25, 0x00	; 0
    1f52:	0e 94 da 12 	call	0x25b4	; 0x25b4 <fputc>
    1f56:	82 e0       	ldi	r24, 0x02	; 2
    1f58:	ee 24       	eor	r14, r14
    1f5a:	e3 94       	inc	r14
    1f5c:	e8 0e       	add	r14, r24
    1f5e:	f3 01       	movw	r30, r6
    1f60:	e8 0f       	add	r30, r24
    1f62:	f1 1d       	adc	r31, r1
    1f64:	80 81       	ld	r24, Z
    1f66:	b6 01       	movw	r22, r12
    1f68:	90 e0       	ldi	r25, 0x00	; 0
    1f6a:	0e 94 da 12 	call	0x25b4	; 0x25b4 <fputc>
    1f6e:	11 50       	subi	r17, 0x01	; 1
    1f70:	8e 2d       	mov	r24, r14
    1f72:	91 f7       	brne	.-28     	; 0x1f58 <vfprintf+0x368>
    1f74:	e6 cf       	rjmp	.-52     	; 0x1f42 <vfprintf+0x352>
    1f76:	85 e4       	ldi	r24, 0x45	; 69
    1f78:	90 e0       	ldi	r25, 0x00	; 0
    1f7a:	b6 01       	movw	r22, r12
    1f7c:	0e 94 da 12 	call	0x25b4	; 0x25b4 <fputc>
    1f80:	57 fc       	sbrc	r5, 7
    1f82:	05 c0       	rjmp	.+10     	; 0x1f8e <vfprintf+0x39e>
    1f84:	41 14       	cp	r4, r1
    1f86:	51 04       	cpc	r5, r1
    1f88:	39 f4       	brne	.+14     	; 0x1f98 <vfprintf+0x3a8>
    1f8a:	04 ff       	sbrs	r16, 4
    1f8c:	05 c0       	rjmp	.+10     	; 0x1f98 <vfprintf+0x3a8>
    1f8e:	51 94       	neg	r5
    1f90:	41 94       	neg	r4
    1f92:	51 08       	sbc	r5, r1
    1f94:	8d e2       	ldi	r24, 0x2D	; 45
    1f96:	01 c0       	rjmp	.+2      	; 0x1f9a <vfprintf+0x3aa>
    1f98:	8b e2       	ldi	r24, 0x2B	; 43
    1f9a:	b6 01       	movw	r22, r12
    1f9c:	90 e0       	ldi	r25, 0x00	; 0
    1f9e:	0e 94 da 12 	call	0x25b4	; 0x25b4 <fputc>
    1fa2:	80 e3       	ldi	r24, 0x30	; 48
    1fa4:	9a e0       	ldi	r25, 0x0A	; 10
    1fa6:	49 16       	cp	r4, r25
    1fa8:	51 04       	cpc	r5, r1
    1faa:	2c f0       	brlt	.+10     	; 0x1fb6 <vfprintf+0x3c6>
    1fac:	8f 5f       	subi	r24, 0xFF	; 255
    1fae:	5a e0       	ldi	r21, 0x0A	; 10
    1fb0:	45 1a       	sub	r4, r21
    1fb2:	51 08       	sbc	r5, r1
    1fb4:	f7 cf       	rjmp	.-18     	; 0x1fa4 <vfprintf+0x3b4>
    1fb6:	b6 01       	movw	r22, r12
    1fb8:	90 e0       	ldi	r25, 0x00	; 0
    1fba:	0e 94 da 12 	call	0x25b4	; 0x25b4 <fputc>
    1fbe:	b6 01       	movw	r22, r12
    1fc0:	c2 01       	movw	r24, r4
    1fc2:	c0 96       	adiw	r24, 0x30	; 48
    1fc4:	0e 94 da 12 	call	0x25b4	; 0x25b4 <fputc>
    1fc8:	57 c1       	rjmp	.+686    	; 0x2278 <vfprintf+0x688>
    1fca:	83 36       	cpi	r24, 0x63	; 99
    1fcc:	31 f0       	breq	.+12     	; 0x1fda <vfprintf+0x3ea>
    1fce:	83 37       	cpi	r24, 0x73	; 115
    1fd0:	79 f0       	breq	.+30     	; 0x1ff0 <vfprintf+0x400>
    1fd2:	83 35       	cpi	r24, 0x53	; 83
    1fd4:	09 f0       	breq	.+2      	; 0x1fd8 <vfprintf+0x3e8>
    1fd6:	58 c0       	rjmp	.+176    	; 0x2088 <vfprintf+0x498>
    1fd8:	21 c0       	rjmp	.+66     	; 0x201c <vfprintf+0x42c>
    1fda:	52 01       	movw	r10, r4
    1fdc:	e2 e0       	ldi	r30, 0x02	; 2
    1fde:	ae 0e       	add	r10, r30
    1fe0:	b1 1c       	adc	r11, r1
    1fe2:	f2 01       	movw	r30, r4
    1fe4:	80 81       	ld	r24, Z
    1fe6:	89 83       	std	Y+1, r24	; 0x01
    1fe8:	01 e0       	ldi	r16, 0x01	; 1
    1fea:	10 e0       	ldi	r17, 0x00	; 0
    1fec:	23 01       	movw	r4, r6
    1fee:	14 c0       	rjmp	.+40     	; 0x2018 <vfprintf+0x428>
    1ff0:	52 01       	movw	r10, r4
    1ff2:	f2 e0       	ldi	r31, 0x02	; 2
    1ff4:	af 0e       	add	r10, r31
    1ff6:	b1 1c       	adc	r11, r1
    1ff8:	f2 01       	movw	r30, r4
    1ffa:	40 80       	ld	r4, Z
    1ffc:	51 80       	ldd	r5, Z+1	; 0x01
    1ffe:	26 ff       	sbrs	r18, 6
    2000:	03 c0       	rjmp	.+6      	; 0x2008 <vfprintf+0x418>
    2002:	61 2f       	mov	r22, r17
    2004:	70 e0       	ldi	r23, 0x00	; 0
    2006:	02 c0       	rjmp	.+4      	; 0x200c <vfprintf+0x41c>
    2008:	6f ef       	ldi	r22, 0xFF	; 255
    200a:	7f ef       	ldi	r23, 0xFF	; 255
    200c:	c2 01       	movw	r24, r4
    200e:	2a 8b       	std	Y+18, r18	; 0x12
    2010:	0e 94 cf 12 	call	0x259e	; 0x259e <strnlen>
    2014:	8c 01       	movw	r16, r24
    2016:	2a 89       	ldd	r18, Y+18	; 0x12
    2018:	2f 77       	andi	r18, 0x7F	; 127
    201a:	15 c0       	rjmp	.+42     	; 0x2046 <vfprintf+0x456>
    201c:	52 01       	movw	r10, r4
    201e:	f2 e0       	ldi	r31, 0x02	; 2
    2020:	af 0e       	add	r10, r31
    2022:	b1 1c       	adc	r11, r1
    2024:	f2 01       	movw	r30, r4
    2026:	40 80       	ld	r4, Z
    2028:	51 80       	ldd	r5, Z+1	; 0x01
    202a:	26 ff       	sbrs	r18, 6
    202c:	03 c0       	rjmp	.+6      	; 0x2034 <vfprintf+0x444>
    202e:	61 2f       	mov	r22, r17
    2030:	70 e0       	ldi	r23, 0x00	; 0
    2032:	02 c0       	rjmp	.+4      	; 0x2038 <vfprintf+0x448>
    2034:	6f ef       	ldi	r22, 0xFF	; 255
    2036:	7f ef       	ldi	r23, 0xFF	; 255
    2038:	c2 01       	movw	r24, r4
    203a:	2a 8b       	std	Y+18, r18	; 0x12
    203c:	0e 94 c4 12 	call	0x2588	; 0x2588 <strnlen_P>
    2040:	8c 01       	movw	r16, r24
    2042:	2a 89       	ldd	r18, Y+18	; 0x12
    2044:	20 68       	ori	r18, 0x80	; 128
    2046:	32 2e       	mov	r3, r18
    2048:	23 fd       	sbrc	r18, 3
    204a:	1a c0       	rjmp	.+52     	; 0x2080 <vfprintf+0x490>
    204c:	8f 2d       	mov	r24, r15
    204e:	90 e0       	ldi	r25, 0x00	; 0
    2050:	08 17       	cp	r16, r24
    2052:	19 07       	cpc	r17, r25
    2054:	a8 f4       	brcc	.+42     	; 0x2080 <vfprintf+0x490>
    2056:	b6 01       	movw	r22, r12
    2058:	80 e2       	ldi	r24, 0x20	; 32
    205a:	90 e0       	ldi	r25, 0x00	; 0
    205c:	0e 94 da 12 	call	0x25b4	; 0x25b4 <fputc>
    2060:	fa 94       	dec	r15
    2062:	f4 cf       	rjmp	.-24     	; 0x204c <vfprintf+0x45c>
    2064:	f2 01       	movw	r30, r4
    2066:	37 fc       	sbrc	r3, 7
    2068:	85 91       	lpm	r24, Z+
    206a:	37 fe       	sbrs	r3, 7
    206c:	81 91       	ld	r24, Z+
    206e:	2f 01       	movw	r4, r30
    2070:	b6 01       	movw	r22, r12
    2072:	90 e0       	ldi	r25, 0x00	; 0
    2074:	0e 94 da 12 	call	0x25b4	; 0x25b4 <fputc>
    2078:	f1 10       	cpse	r15, r1
    207a:	fa 94       	dec	r15
    207c:	01 50       	subi	r16, 0x01	; 1
    207e:	11 09       	sbc	r17, r1
    2080:	01 15       	cp	r16, r1
    2082:	11 05       	cpc	r17, r1
    2084:	79 f7       	brne	.-34     	; 0x2064 <vfprintf+0x474>
    2086:	f8 c0       	rjmp	.+496    	; 0x2278 <vfprintf+0x688>
    2088:	84 36       	cpi	r24, 0x64	; 100
    208a:	11 f0       	breq	.+4      	; 0x2090 <vfprintf+0x4a0>
    208c:	89 36       	cpi	r24, 0x69	; 105
    208e:	59 f5       	brne	.+86     	; 0x20e6 <vfprintf+0x4f6>
    2090:	52 01       	movw	r10, r4
    2092:	27 ff       	sbrs	r18, 7
    2094:	09 c0       	rjmp	.+18     	; 0x20a8 <vfprintf+0x4b8>
    2096:	f4 e0       	ldi	r31, 0x04	; 4
    2098:	af 0e       	add	r10, r31
    209a:	b1 1c       	adc	r11, r1
    209c:	f2 01       	movw	r30, r4
    209e:	60 81       	ld	r22, Z
    20a0:	71 81       	ldd	r23, Z+1	; 0x01
    20a2:	82 81       	ldd	r24, Z+2	; 0x02
    20a4:	93 81       	ldd	r25, Z+3	; 0x03
    20a6:	0a c0       	rjmp	.+20     	; 0x20bc <vfprintf+0x4cc>
    20a8:	f2 e0       	ldi	r31, 0x02	; 2
    20aa:	af 0e       	add	r10, r31
    20ac:	b1 1c       	adc	r11, r1
    20ae:	f2 01       	movw	r30, r4
    20b0:	60 81       	ld	r22, Z
    20b2:	71 81       	ldd	r23, Z+1	; 0x01
    20b4:	07 2e       	mov	r0, r23
    20b6:	00 0c       	add	r0, r0
    20b8:	88 0b       	sbc	r24, r24
    20ba:	99 0b       	sbc	r25, r25
    20bc:	2f 76       	andi	r18, 0x6F	; 111
    20be:	32 2e       	mov	r3, r18
    20c0:	97 ff       	sbrs	r25, 7
    20c2:	09 c0       	rjmp	.+18     	; 0x20d6 <vfprintf+0x4e6>
    20c4:	90 95       	com	r25
    20c6:	80 95       	com	r24
    20c8:	70 95       	com	r23
    20ca:	61 95       	neg	r22
    20cc:	7f 4f       	sbci	r23, 0xFF	; 255
    20ce:	8f 4f       	sbci	r24, 0xFF	; 255
    20d0:	9f 4f       	sbci	r25, 0xFF	; 255
    20d2:	20 68       	ori	r18, 0x80	; 128
    20d4:	32 2e       	mov	r3, r18
    20d6:	2a e0       	ldi	r18, 0x0A	; 10
    20d8:	30 e0       	ldi	r19, 0x00	; 0
    20da:	a3 01       	movw	r20, r6
    20dc:	0e 94 35 13 	call	0x266a	; 0x266a <__ultoa_invert>
    20e0:	e8 2e       	mov	r14, r24
    20e2:	e6 18       	sub	r14, r6
    20e4:	3f c0       	rjmp	.+126    	; 0x2164 <vfprintf+0x574>
    20e6:	02 2f       	mov	r16, r18
    20e8:	85 37       	cpi	r24, 0x75	; 117
    20ea:	21 f4       	brne	.+8      	; 0x20f4 <vfprintf+0x504>
    20ec:	0f 7e       	andi	r16, 0xEF	; 239
    20ee:	2a e0       	ldi	r18, 0x0A	; 10
    20f0:	30 e0       	ldi	r19, 0x00	; 0
    20f2:	1d c0       	rjmp	.+58     	; 0x212e <vfprintf+0x53e>
    20f4:	09 7f       	andi	r16, 0xF9	; 249
    20f6:	8f 36       	cpi	r24, 0x6F	; 111
    20f8:	91 f0       	breq	.+36     	; 0x211e <vfprintf+0x52e>
    20fa:	18 f4       	brcc	.+6      	; 0x2102 <vfprintf+0x512>
    20fc:	88 35       	cpi	r24, 0x58	; 88
    20fe:	59 f0       	breq	.+22     	; 0x2116 <vfprintf+0x526>
    2100:	c5 c0       	rjmp	.+394    	; 0x228c <vfprintf+0x69c>
    2102:	80 37       	cpi	r24, 0x70	; 112
    2104:	19 f0       	breq	.+6      	; 0x210c <vfprintf+0x51c>
    2106:	88 37       	cpi	r24, 0x78	; 120
    2108:	11 f0       	breq	.+4      	; 0x210e <vfprintf+0x51e>
    210a:	c0 c0       	rjmp	.+384    	; 0x228c <vfprintf+0x69c>
    210c:	00 61       	ori	r16, 0x10	; 16
    210e:	04 ff       	sbrs	r16, 4
    2110:	09 c0       	rjmp	.+18     	; 0x2124 <vfprintf+0x534>
    2112:	04 60       	ori	r16, 0x04	; 4
    2114:	07 c0       	rjmp	.+14     	; 0x2124 <vfprintf+0x534>
    2116:	24 ff       	sbrs	r18, 4
    2118:	08 c0       	rjmp	.+16     	; 0x212a <vfprintf+0x53a>
    211a:	06 60       	ori	r16, 0x06	; 6
    211c:	06 c0       	rjmp	.+12     	; 0x212a <vfprintf+0x53a>
    211e:	28 e0       	ldi	r18, 0x08	; 8
    2120:	30 e0       	ldi	r19, 0x00	; 0
    2122:	05 c0       	rjmp	.+10     	; 0x212e <vfprintf+0x53e>
    2124:	20 e1       	ldi	r18, 0x10	; 16
    2126:	30 e0       	ldi	r19, 0x00	; 0
    2128:	02 c0       	rjmp	.+4      	; 0x212e <vfprintf+0x53e>
    212a:	20 e1       	ldi	r18, 0x10	; 16
    212c:	32 e0       	ldi	r19, 0x02	; 2
    212e:	52 01       	movw	r10, r4
    2130:	07 ff       	sbrs	r16, 7
    2132:	09 c0       	rjmp	.+18     	; 0x2146 <vfprintf+0x556>
    2134:	f4 e0       	ldi	r31, 0x04	; 4
    2136:	af 0e       	add	r10, r31
    2138:	b1 1c       	adc	r11, r1
    213a:	f2 01       	movw	r30, r4
    213c:	60 81       	ld	r22, Z
    213e:	71 81       	ldd	r23, Z+1	; 0x01
    2140:	82 81       	ldd	r24, Z+2	; 0x02
    2142:	93 81       	ldd	r25, Z+3	; 0x03
    2144:	08 c0       	rjmp	.+16     	; 0x2156 <vfprintf+0x566>
    2146:	f2 e0       	ldi	r31, 0x02	; 2
    2148:	af 0e       	add	r10, r31
    214a:	b1 1c       	adc	r11, r1
    214c:	f2 01       	movw	r30, r4
    214e:	60 81       	ld	r22, Z
    2150:	71 81       	ldd	r23, Z+1	; 0x01
    2152:	80 e0       	ldi	r24, 0x00	; 0
    2154:	90 e0       	ldi	r25, 0x00	; 0
    2156:	a3 01       	movw	r20, r6
    2158:	0e 94 35 13 	call	0x266a	; 0x266a <__ultoa_invert>
    215c:	e8 2e       	mov	r14, r24
    215e:	e6 18       	sub	r14, r6
    2160:	0f 77       	andi	r16, 0x7F	; 127
    2162:	30 2e       	mov	r3, r16
    2164:	36 fe       	sbrs	r3, 6
    2166:	0b c0       	rjmp	.+22     	; 0x217e <vfprintf+0x58e>
    2168:	33 2d       	mov	r19, r3
    216a:	3e 7f       	andi	r19, 0xFE	; 254
    216c:	e1 16       	cp	r14, r17
    216e:	50 f4       	brcc	.+20     	; 0x2184 <vfprintf+0x594>
    2170:	34 fe       	sbrs	r3, 4
    2172:	0a c0       	rjmp	.+20     	; 0x2188 <vfprintf+0x598>
    2174:	32 fc       	sbrc	r3, 2
    2176:	08 c0       	rjmp	.+16     	; 0x2188 <vfprintf+0x598>
    2178:	33 2d       	mov	r19, r3
    217a:	3e 7e       	andi	r19, 0xEE	; 238
    217c:	05 c0       	rjmp	.+10     	; 0x2188 <vfprintf+0x598>
    217e:	0e 2d       	mov	r16, r14
    2180:	33 2d       	mov	r19, r3
    2182:	03 c0       	rjmp	.+6      	; 0x218a <vfprintf+0x59a>
    2184:	0e 2d       	mov	r16, r14
    2186:	01 c0       	rjmp	.+2      	; 0x218a <vfprintf+0x59a>
    2188:	01 2f       	mov	r16, r17
    218a:	34 ff       	sbrs	r19, 4
    218c:	0c c0       	rjmp	.+24     	; 0x21a6 <vfprintf+0x5b6>
    218e:	fe 01       	movw	r30, r28
    2190:	ee 0d       	add	r30, r14
    2192:	f1 1d       	adc	r31, r1
    2194:	80 81       	ld	r24, Z
    2196:	80 33       	cpi	r24, 0x30	; 48
    2198:	11 f4       	brne	.+4      	; 0x219e <vfprintf+0x5ae>
    219a:	39 7e       	andi	r19, 0xE9	; 233
    219c:	08 c0       	rjmp	.+16     	; 0x21ae <vfprintf+0x5be>
    219e:	32 ff       	sbrs	r19, 2
    21a0:	05 c0       	rjmp	.+10     	; 0x21ac <vfprintf+0x5bc>
    21a2:	0e 5f       	subi	r16, 0xFE	; 254
    21a4:	04 c0       	rjmp	.+8      	; 0x21ae <vfprintf+0x5be>
    21a6:	83 2f       	mov	r24, r19
    21a8:	86 78       	andi	r24, 0x86	; 134
    21aa:	09 f0       	breq	.+2      	; 0x21ae <vfprintf+0x5be>
    21ac:	0f 5f       	subi	r16, 0xFF	; 255
    21ae:	33 fd       	sbrc	r19, 3
    21b0:	13 c0       	rjmp	.+38     	; 0x21d8 <vfprintf+0x5e8>
    21b2:	30 ff       	sbrs	r19, 0
    21b4:	06 c0       	rjmp	.+12     	; 0x21c2 <vfprintf+0x5d2>
    21b6:	1e 2d       	mov	r17, r14
    21b8:	0f 15       	cp	r16, r15
    21ba:	18 f4       	brcc	.+6      	; 0x21c2 <vfprintf+0x5d2>
    21bc:	1f 0d       	add	r17, r15
    21be:	10 1b       	sub	r17, r16
    21c0:	0f 2d       	mov	r16, r15
    21c2:	0f 15       	cp	r16, r15
    21c4:	68 f4       	brcc	.+26     	; 0x21e0 <vfprintf+0x5f0>
    21c6:	b6 01       	movw	r22, r12
    21c8:	80 e2       	ldi	r24, 0x20	; 32
    21ca:	90 e0       	ldi	r25, 0x00	; 0
    21cc:	3b 8b       	std	Y+19, r19	; 0x13
    21ce:	0e 94 da 12 	call	0x25b4	; 0x25b4 <fputc>
    21d2:	0f 5f       	subi	r16, 0xFF	; 255
    21d4:	3b 89       	ldd	r19, Y+19	; 0x13
    21d6:	f5 cf       	rjmp	.-22     	; 0x21c2 <vfprintf+0x5d2>
    21d8:	0f 15       	cp	r16, r15
    21da:	10 f4       	brcc	.+4      	; 0x21e0 <vfprintf+0x5f0>
    21dc:	f0 1a       	sub	r15, r16
    21de:	01 c0       	rjmp	.+2      	; 0x21e2 <vfprintf+0x5f2>
    21e0:	f1 2c       	mov	r15, r1
    21e2:	34 ff       	sbrs	r19, 4
    21e4:	12 c0       	rjmp	.+36     	; 0x220a <vfprintf+0x61a>
    21e6:	b6 01       	movw	r22, r12
    21e8:	80 e3       	ldi	r24, 0x30	; 48
    21ea:	90 e0       	ldi	r25, 0x00	; 0
    21ec:	3b 8b       	std	Y+19, r19	; 0x13
    21ee:	0e 94 da 12 	call	0x25b4	; 0x25b4 <fputc>
    21f2:	3b 89       	ldd	r19, Y+19	; 0x13
    21f4:	32 ff       	sbrs	r19, 2
    21f6:	17 c0       	rjmp	.+46     	; 0x2226 <vfprintf+0x636>
    21f8:	31 fd       	sbrc	r19, 1
    21fa:	03 c0       	rjmp	.+6      	; 0x2202 <vfprintf+0x612>
    21fc:	88 e7       	ldi	r24, 0x78	; 120
    21fe:	90 e0       	ldi	r25, 0x00	; 0
    2200:	02 c0       	rjmp	.+4      	; 0x2206 <vfprintf+0x616>
    2202:	88 e5       	ldi	r24, 0x58	; 88
    2204:	90 e0       	ldi	r25, 0x00	; 0
    2206:	b6 01       	movw	r22, r12
    2208:	0c c0       	rjmp	.+24     	; 0x2222 <vfprintf+0x632>
    220a:	83 2f       	mov	r24, r19
    220c:	86 78       	andi	r24, 0x86	; 134
    220e:	59 f0       	breq	.+22     	; 0x2226 <vfprintf+0x636>
    2210:	31 ff       	sbrs	r19, 1
    2212:	02 c0       	rjmp	.+4      	; 0x2218 <vfprintf+0x628>
    2214:	8b e2       	ldi	r24, 0x2B	; 43
    2216:	01 c0       	rjmp	.+2      	; 0x221a <vfprintf+0x62a>
    2218:	80 e2       	ldi	r24, 0x20	; 32
    221a:	37 fd       	sbrc	r19, 7
    221c:	8d e2       	ldi	r24, 0x2D	; 45
    221e:	b6 01       	movw	r22, r12
    2220:	90 e0       	ldi	r25, 0x00	; 0
    2222:	0e 94 da 12 	call	0x25b4	; 0x25b4 <fputc>
    2226:	e1 16       	cp	r14, r17
    2228:	38 f4       	brcc	.+14     	; 0x2238 <vfprintf+0x648>
    222a:	b6 01       	movw	r22, r12
    222c:	80 e3       	ldi	r24, 0x30	; 48
    222e:	90 e0       	ldi	r25, 0x00	; 0
    2230:	0e 94 da 12 	call	0x25b4	; 0x25b4 <fputc>
    2234:	11 50       	subi	r17, 0x01	; 1
    2236:	f7 cf       	rjmp	.-18     	; 0x2226 <vfprintf+0x636>
    2238:	ea 94       	dec	r14
    223a:	f3 01       	movw	r30, r6
    223c:	ee 0d       	add	r30, r14
    223e:	f1 1d       	adc	r31, r1
    2240:	80 81       	ld	r24, Z
    2242:	b6 01       	movw	r22, r12
    2244:	90 e0       	ldi	r25, 0x00	; 0
    2246:	0e 94 da 12 	call	0x25b4	; 0x25b4 <fputc>
    224a:	e1 10       	cpse	r14, r1
    224c:	f5 cf       	rjmp	.-22     	; 0x2238 <vfprintf+0x648>
    224e:	14 c0       	rjmp	.+40     	; 0x2278 <vfprintf+0x688>
    2250:	f4 e0       	ldi	r31, 0x04	; 4
    2252:	ff 15       	cp	r31, r15
    2254:	58 f5       	brcc	.+86     	; 0x22ac <vfprintf+0x6bc>
    2256:	84 e0       	ldi	r24, 0x04	; 4
    2258:	f8 1a       	sub	r15, r24
    225a:	33 fe       	sbrs	r3, 3
    225c:	1e c0       	rjmp	.+60     	; 0x229a <vfprintf+0x6aa>
    225e:	21 10       	cpse	r2, r1
    2260:	26 c0       	rjmp	.+76     	; 0x22ae <vfprintf+0x6be>
    2262:	03 ff       	sbrs	r16, 3
    2264:	2a c0       	rjmp	.+84     	; 0x22ba <vfprintf+0x6ca>
    2266:	04 eb       	ldi	r16, 0xB4	; 180
    2268:	10 e0       	ldi	r17, 0x00	; 0
    226a:	f3 2d       	mov	r31, r3
    226c:	f0 71       	andi	r31, 0x10	; 16
    226e:	3f 2e       	mov	r3, r31
    2270:	f8 01       	movw	r30, r16
    2272:	84 91       	lpm	r24, Z
    2274:	81 11       	cpse	r24, r1
    2276:	24 c0       	rjmp	.+72     	; 0x22c0 <vfprintf+0x6d0>
    2278:	ff 20       	and	r15, r15
    227a:	09 f4       	brne	.+2      	; 0x227e <vfprintf+0x68e>
    227c:	e5 cc       	rjmp	.-1590   	; 0x1c48 <vfprintf+0x58>
    227e:	b6 01       	movw	r22, r12
    2280:	80 e2       	ldi	r24, 0x20	; 32
    2282:	90 e0       	ldi	r25, 0x00	; 0
    2284:	0e 94 da 12 	call	0x25b4	; 0x25b4 <fputc>
    2288:	fa 94       	dec	r15
    228a:	f6 cf       	rjmp	.-20     	; 0x2278 <vfprintf+0x688>
    228c:	f6 01       	movw	r30, r12
    228e:	86 81       	ldd	r24, Z+6	; 0x06
    2290:	97 81       	ldd	r25, Z+7	; 0x07
    2292:	26 c0       	rjmp	.+76     	; 0x22e0 <vfprintf+0x6f0>
    2294:	8f ef       	ldi	r24, 0xFF	; 255
    2296:	9f ef       	ldi	r25, 0xFF	; 255
    2298:	23 c0       	rjmp	.+70     	; 0x22e0 <vfprintf+0x6f0>
    229a:	b6 01       	movw	r22, r12
    229c:	80 e2       	ldi	r24, 0x20	; 32
    229e:	90 e0       	ldi	r25, 0x00	; 0
    22a0:	0e 94 da 12 	call	0x25b4	; 0x25b4 <fputc>
    22a4:	fa 94       	dec	r15
    22a6:	f1 10       	cpse	r15, r1
    22a8:	f8 cf       	rjmp	.-16     	; 0x229a <vfprintf+0x6aa>
    22aa:	d9 cf       	rjmp	.-78     	; 0x225e <vfprintf+0x66e>
    22ac:	f1 2c       	mov	r15, r1
    22ae:	b6 01       	movw	r22, r12
    22b0:	82 2d       	mov	r24, r2
    22b2:	90 e0       	ldi	r25, 0x00	; 0
    22b4:	0e 94 da 12 	call	0x25b4	; 0x25b4 <fputc>
    22b8:	d4 cf       	rjmp	.-88     	; 0x2262 <vfprintf+0x672>
    22ba:	08 eb       	ldi	r16, 0xB8	; 184
    22bc:	10 e0       	ldi	r17, 0x00	; 0
    22be:	d5 cf       	rjmp	.-86     	; 0x226a <vfprintf+0x67a>
    22c0:	31 10       	cpse	r3, r1
    22c2:	80 52       	subi	r24, 0x20	; 32
    22c4:	b6 01       	movw	r22, r12
    22c6:	90 e0       	ldi	r25, 0x00	; 0
    22c8:	0e 94 da 12 	call	0x25b4	; 0x25b4 <fputc>
    22cc:	0f 5f       	subi	r16, 0xFF	; 255
    22ce:	1f 4f       	sbci	r17, 0xFF	; 255
    22d0:	cf cf       	rjmp	.-98     	; 0x2270 <vfprintf+0x680>
    22d2:	23 e0       	ldi	r18, 0x03	; 3
    22d4:	2f 15       	cp	r18, r15
    22d6:	10 f4       	brcc	.+4      	; 0x22dc <vfprintf+0x6ec>
    22d8:	83 e0       	ldi	r24, 0x03	; 3
    22da:	be cf       	rjmp	.-132    	; 0x2258 <vfprintf+0x668>
    22dc:	f1 2c       	mov	r15, r1
    22de:	c1 cf       	rjmp	.-126    	; 0x2262 <vfprintf+0x672>
    22e0:	63 96       	adiw	r28, 0x13	; 19
    22e2:	e2 e1       	ldi	r30, 0x12	; 18
    22e4:	0c 94 af 11 	jmp	0x235e	; 0x235e <__epilogue_restores__>

000022e8 <__divmodsi4>:
    22e8:	05 2e       	mov	r0, r21
    22ea:	97 fb       	bst	r25, 7
    22ec:	1e f4       	brtc	.+6      	; 0x22f4 <__divmodsi4+0xc>
    22ee:	00 94       	com	r0
    22f0:	0e 94 8b 11 	call	0x2316	; 0x2316 <__negsi2>
    22f4:	57 fd       	sbrc	r21, 7
    22f6:	07 d0       	rcall	.+14     	; 0x2306 <__divmodsi4_neg2>
    22f8:	0e 94 ca 11 	call	0x2394	; 0x2394 <__udivmodsi4>
    22fc:	07 fc       	sbrc	r0, 7
    22fe:	03 d0       	rcall	.+6      	; 0x2306 <__divmodsi4_neg2>
    2300:	4e f4       	brtc	.+18     	; 0x2314 <__divmodsi4_exit>
    2302:	0c 94 8b 11 	jmp	0x2316	; 0x2316 <__negsi2>

00002306 <__divmodsi4_neg2>:
    2306:	50 95       	com	r21
    2308:	40 95       	com	r20
    230a:	30 95       	com	r19
    230c:	21 95       	neg	r18
    230e:	3f 4f       	sbci	r19, 0xFF	; 255
    2310:	4f 4f       	sbci	r20, 0xFF	; 255
    2312:	5f 4f       	sbci	r21, 0xFF	; 255

00002314 <__divmodsi4_exit>:
    2314:	08 95       	ret

00002316 <__negsi2>:
    2316:	90 95       	com	r25
    2318:	80 95       	com	r24
    231a:	70 95       	com	r23
    231c:	61 95       	neg	r22
    231e:	7f 4f       	sbci	r23, 0xFF	; 255
    2320:	8f 4f       	sbci	r24, 0xFF	; 255
    2322:	9f 4f       	sbci	r25, 0xFF	; 255
    2324:	08 95       	ret

00002326 <__prologue_saves__>:
    2326:	2f 92       	push	r2
    2328:	3f 92       	push	r3
    232a:	4f 92       	push	r4
    232c:	5f 92       	push	r5
    232e:	6f 92       	push	r6
    2330:	7f 92       	push	r7
    2332:	8f 92       	push	r8
    2334:	9f 92       	push	r9
    2336:	af 92       	push	r10
    2338:	bf 92       	push	r11
    233a:	cf 92       	push	r12
    233c:	df 92       	push	r13
    233e:	ef 92       	push	r14
    2340:	ff 92       	push	r15
    2342:	0f 93       	push	r16
    2344:	1f 93       	push	r17
    2346:	cf 93       	push	r28
    2348:	df 93       	push	r29
    234a:	cd b7       	in	r28, 0x3d	; 61
    234c:	de b7       	in	r29, 0x3e	; 62
    234e:	ca 1b       	sub	r28, r26
    2350:	db 0b       	sbc	r29, r27
    2352:	0f b6       	in	r0, 0x3f	; 63
    2354:	f8 94       	cli
    2356:	de bf       	out	0x3e, r29	; 62
    2358:	0f be       	out	0x3f, r0	; 63
    235a:	cd bf       	out	0x3d, r28	; 61
    235c:	09 94       	ijmp

0000235e <__epilogue_restores__>:
    235e:	2a 88       	ldd	r2, Y+18	; 0x12
    2360:	39 88       	ldd	r3, Y+17	; 0x11
    2362:	48 88       	ldd	r4, Y+16	; 0x10
    2364:	5f 84       	ldd	r5, Y+15	; 0x0f
    2366:	6e 84       	ldd	r6, Y+14	; 0x0e
    2368:	7d 84       	ldd	r7, Y+13	; 0x0d
    236a:	8c 84       	ldd	r8, Y+12	; 0x0c
    236c:	9b 84       	ldd	r9, Y+11	; 0x0b
    236e:	aa 84       	ldd	r10, Y+10	; 0x0a
    2370:	b9 84       	ldd	r11, Y+9	; 0x09
    2372:	c8 84       	ldd	r12, Y+8	; 0x08
    2374:	df 80       	ldd	r13, Y+7	; 0x07
    2376:	ee 80       	ldd	r14, Y+6	; 0x06
    2378:	fd 80       	ldd	r15, Y+5	; 0x05
    237a:	0c 81       	ldd	r16, Y+4	; 0x04
    237c:	1b 81       	ldd	r17, Y+3	; 0x03
    237e:	aa 81       	ldd	r26, Y+2	; 0x02
    2380:	b9 81       	ldd	r27, Y+1	; 0x01
    2382:	ce 0f       	add	r28, r30
    2384:	d1 1d       	adc	r29, r1
    2386:	0f b6       	in	r0, 0x3f	; 63
    2388:	f8 94       	cli
    238a:	de bf       	out	0x3e, r29	; 62
    238c:	0f be       	out	0x3f, r0	; 63
    238e:	cd bf       	out	0x3d, r28	; 61
    2390:	ed 01       	movw	r28, r26
    2392:	08 95       	ret

00002394 <__udivmodsi4>:
    2394:	a1 e2       	ldi	r26, 0x21	; 33
    2396:	1a 2e       	mov	r1, r26
    2398:	aa 1b       	sub	r26, r26
    239a:	bb 1b       	sub	r27, r27
    239c:	fd 01       	movw	r30, r26
    239e:	0d c0       	rjmp	.+26     	; 0x23ba <__udivmodsi4_ep>

000023a0 <__udivmodsi4_loop>:
    23a0:	aa 1f       	adc	r26, r26
    23a2:	bb 1f       	adc	r27, r27
    23a4:	ee 1f       	adc	r30, r30
    23a6:	ff 1f       	adc	r31, r31
    23a8:	a2 17       	cp	r26, r18
    23aa:	b3 07       	cpc	r27, r19
    23ac:	e4 07       	cpc	r30, r20
    23ae:	f5 07       	cpc	r31, r21
    23b0:	20 f0       	brcs	.+8      	; 0x23ba <__udivmodsi4_ep>
    23b2:	a2 1b       	sub	r26, r18
    23b4:	b3 0b       	sbc	r27, r19
    23b6:	e4 0b       	sbc	r30, r20
    23b8:	f5 0b       	sbc	r31, r21

000023ba <__udivmodsi4_ep>:
    23ba:	66 1f       	adc	r22, r22
    23bc:	77 1f       	adc	r23, r23
    23be:	88 1f       	adc	r24, r24
    23c0:	99 1f       	adc	r25, r25
    23c2:	1a 94       	dec	r1
    23c4:	69 f7       	brne	.-38     	; 0x23a0 <__udivmodsi4_loop>
    23c6:	60 95       	com	r22
    23c8:	70 95       	com	r23
    23ca:	80 95       	com	r24
    23cc:	90 95       	com	r25
    23ce:	9b 01       	movw	r18, r22
    23d0:	ac 01       	movw	r20, r24
    23d2:	bd 01       	movw	r22, r26
    23d4:	cf 01       	movw	r24, r30
    23d6:	08 95       	ret

000023d8 <__ftoa_engine>:
    23d8:	28 30       	cpi	r18, 0x08	; 8
    23da:	08 f0       	brcs	.+2      	; 0x23de <__ftoa_engine+0x6>
    23dc:	27 e0       	ldi	r18, 0x07	; 7
    23de:	33 27       	eor	r19, r19
    23e0:	da 01       	movw	r26, r20
    23e2:	99 0f       	add	r25, r25
    23e4:	31 1d       	adc	r19, r1
    23e6:	87 fd       	sbrc	r24, 7
    23e8:	91 60       	ori	r25, 0x01	; 1
    23ea:	00 96       	adiw	r24, 0x00	; 0
    23ec:	61 05       	cpc	r22, r1
    23ee:	71 05       	cpc	r23, r1
    23f0:	39 f4       	brne	.+14     	; 0x2400 <__ftoa_engine+0x28>
    23f2:	32 60       	ori	r19, 0x02	; 2
    23f4:	2e 5f       	subi	r18, 0xFE	; 254
    23f6:	3d 93       	st	X+, r19
    23f8:	30 e3       	ldi	r19, 0x30	; 48
    23fa:	2a 95       	dec	r18
    23fc:	e1 f7       	brne	.-8      	; 0x23f6 <__ftoa_engine+0x1e>
    23fe:	08 95       	ret
    2400:	9f 3f       	cpi	r25, 0xFF	; 255
    2402:	30 f0       	brcs	.+12     	; 0x2410 <__ftoa_engine+0x38>
    2404:	80 38       	cpi	r24, 0x80	; 128
    2406:	71 05       	cpc	r23, r1
    2408:	61 05       	cpc	r22, r1
    240a:	09 f0       	breq	.+2      	; 0x240e <__ftoa_engine+0x36>
    240c:	3c 5f       	subi	r19, 0xFC	; 252
    240e:	3c 5f       	subi	r19, 0xFC	; 252
    2410:	3d 93       	st	X+, r19
    2412:	91 30       	cpi	r25, 0x01	; 1
    2414:	08 f0       	brcs	.+2      	; 0x2418 <__ftoa_engine+0x40>
    2416:	80 68       	ori	r24, 0x80	; 128
    2418:	91 1d       	adc	r25, r1
    241a:	df 93       	push	r29
    241c:	cf 93       	push	r28
    241e:	1f 93       	push	r17
    2420:	0f 93       	push	r16
    2422:	ff 92       	push	r15
    2424:	ef 92       	push	r14
    2426:	19 2f       	mov	r17, r25
    2428:	98 7f       	andi	r25, 0xF8	; 248
    242a:	96 95       	lsr	r25
    242c:	e9 2f       	mov	r30, r25
    242e:	96 95       	lsr	r25
    2430:	96 95       	lsr	r25
    2432:	e9 0f       	add	r30, r25
    2434:	ff 27       	eor	r31, r31
    2436:	ea 5e       	subi	r30, 0xEA	; 234
    2438:	fe 4f       	sbci	r31, 0xFE	; 254
    243a:	99 27       	eor	r25, r25
    243c:	33 27       	eor	r19, r19
    243e:	ee 24       	eor	r14, r14
    2440:	ff 24       	eor	r15, r15
    2442:	a7 01       	movw	r20, r14
    2444:	e7 01       	movw	r28, r14
    2446:	05 90       	lpm	r0, Z+
    2448:	08 94       	sec
    244a:	07 94       	ror	r0
    244c:	28 f4       	brcc	.+10     	; 0x2458 <__ftoa_engine+0x80>
    244e:	36 0f       	add	r19, r22
    2450:	e7 1e       	adc	r14, r23
    2452:	f8 1e       	adc	r15, r24
    2454:	49 1f       	adc	r20, r25
    2456:	51 1d       	adc	r21, r1
    2458:	66 0f       	add	r22, r22
    245a:	77 1f       	adc	r23, r23
    245c:	88 1f       	adc	r24, r24
    245e:	99 1f       	adc	r25, r25
    2460:	06 94       	lsr	r0
    2462:	a1 f7       	brne	.-24     	; 0x244c <__ftoa_engine+0x74>
    2464:	05 90       	lpm	r0, Z+
    2466:	07 94       	ror	r0
    2468:	28 f4       	brcc	.+10     	; 0x2474 <__ftoa_engine+0x9c>
    246a:	e7 0e       	add	r14, r23
    246c:	f8 1e       	adc	r15, r24
    246e:	49 1f       	adc	r20, r25
    2470:	56 1f       	adc	r21, r22
    2472:	c1 1d       	adc	r28, r1
    2474:	77 0f       	add	r23, r23
    2476:	88 1f       	adc	r24, r24
    2478:	99 1f       	adc	r25, r25
    247a:	66 1f       	adc	r22, r22
    247c:	06 94       	lsr	r0
    247e:	a1 f7       	brne	.-24     	; 0x2468 <__ftoa_engine+0x90>
    2480:	05 90       	lpm	r0, Z+
    2482:	07 94       	ror	r0
    2484:	28 f4       	brcc	.+10     	; 0x2490 <__ftoa_engine+0xb8>
    2486:	f8 0e       	add	r15, r24
    2488:	49 1f       	adc	r20, r25
    248a:	56 1f       	adc	r21, r22
    248c:	c7 1f       	adc	r28, r23
    248e:	d1 1d       	adc	r29, r1
    2490:	88 0f       	add	r24, r24
    2492:	99 1f       	adc	r25, r25
    2494:	66 1f       	adc	r22, r22
    2496:	77 1f       	adc	r23, r23
    2498:	06 94       	lsr	r0
    249a:	a1 f7       	brne	.-24     	; 0x2484 <__ftoa_engine+0xac>
    249c:	05 90       	lpm	r0, Z+
    249e:	07 94       	ror	r0
    24a0:	20 f4       	brcc	.+8      	; 0x24aa <__ftoa_engine+0xd2>
    24a2:	49 0f       	add	r20, r25
    24a4:	56 1f       	adc	r21, r22
    24a6:	c7 1f       	adc	r28, r23
    24a8:	d8 1f       	adc	r29, r24
    24aa:	99 0f       	add	r25, r25
    24ac:	66 1f       	adc	r22, r22
    24ae:	77 1f       	adc	r23, r23
    24b0:	88 1f       	adc	r24, r24
    24b2:	06 94       	lsr	r0
    24b4:	a9 f7       	brne	.-22     	; 0x24a0 <__ftoa_engine+0xc8>
    24b6:	84 91       	lpm	r24, Z
    24b8:	10 95       	com	r17
    24ba:	17 70       	andi	r17, 0x07	; 7
    24bc:	41 f0       	breq	.+16     	; 0x24ce <__ftoa_engine+0xf6>
    24be:	d6 95       	lsr	r29
    24c0:	c7 95       	ror	r28
    24c2:	57 95       	ror	r21
    24c4:	47 95       	ror	r20
    24c6:	f7 94       	ror	r15
    24c8:	e7 94       	ror	r14
    24ca:	1a 95       	dec	r17
    24cc:	c1 f7       	brne	.-16     	; 0x24be <__ftoa_engine+0xe6>
    24ce:	ec eb       	ldi	r30, 0xBC	; 188
    24d0:	f0 e0       	ldi	r31, 0x00	; 0
    24d2:	68 94       	set
    24d4:	15 90       	lpm	r1, Z+
    24d6:	15 91       	lpm	r17, Z+
    24d8:	35 91       	lpm	r19, Z+
    24da:	65 91       	lpm	r22, Z+
    24dc:	95 91       	lpm	r25, Z+
    24de:	05 90       	lpm	r0, Z+
    24e0:	7f e2       	ldi	r23, 0x2F	; 47
    24e2:	73 95       	inc	r23
    24e4:	e1 18       	sub	r14, r1
    24e6:	f1 0a       	sbc	r15, r17
    24e8:	43 0b       	sbc	r20, r19
    24ea:	56 0b       	sbc	r21, r22
    24ec:	c9 0b       	sbc	r28, r25
    24ee:	d0 09       	sbc	r29, r0
    24f0:	c0 f7       	brcc	.-16     	; 0x24e2 <__ftoa_engine+0x10a>
    24f2:	e1 0c       	add	r14, r1
    24f4:	f1 1e       	adc	r15, r17
    24f6:	43 1f       	adc	r20, r19
    24f8:	56 1f       	adc	r21, r22
    24fa:	c9 1f       	adc	r28, r25
    24fc:	d0 1d       	adc	r29, r0
    24fe:	7e f4       	brtc	.+30     	; 0x251e <__ftoa_engine+0x146>
    2500:	70 33       	cpi	r23, 0x30	; 48
    2502:	11 f4       	brne	.+4      	; 0x2508 <__ftoa_engine+0x130>
    2504:	8a 95       	dec	r24
    2506:	e6 cf       	rjmp	.-52     	; 0x24d4 <__ftoa_engine+0xfc>
    2508:	e8 94       	clt
    250a:	01 50       	subi	r16, 0x01	; 1
    250c:	30 f0       	brcs	.+12     	; 0x251a <__ftoa_engine+0x142>
    250e:	08 0f       	add	r16, r24
    2510:	0a f4       	brpl	.+2      	; 0x2514 <__ftoa_engine+0x13c>
    2512:	00 27       	eor	r16, r16
    2514:	02 17       	cp	r16, r18
    2516:	08 f4       	brcc	.+2      	; 0x251a <__ftoa_engine+0x142>
    2518:	20 2f       	mov	r18, r16
    251a:	23 95       	inc	r18
    251c:	02 2f       	mov	r16, r18
    251e:	7a 33       	cpi	r23, 0x3A	; 58
    2520:	28 f0       	brcs	.+10     	; 0x252c <__ftoa_engine+0x154>
    2522:	79 e3       	ldi	r23, 0x39	; 57
    2524:	7d 93       	st	X+, r23
    2526:	2a 95       	dec	r18
    2528:	e9 f7       	brne	.-6      	; 0x2524 <__ftoa_engine+0x14c>
    252a:	10 c0       	rjmp	.+32     	; 0x254c <__ftoa_engine+0x174>
    252c:	7d 93       	st	X+, r23
    252e:	2a 95       	dec	r18
    2530:	89 f6       	brne	.-94     	; 0x24d4 <__ftoa_engine+0xfc>
    2532:	06 94       	lsr	r0
    2534:	97 95       	ror	r25
    2536:	67 95       	ror	r22
    2538:	37 95       	ror	r19
    253a:	17 95       	ror	r17
    253c:	17 94       	ror	r1
    253e:	e1 18       	sub	r14, r1
    2540:	f1 0a       	sbc	r15, r17
    2542:	43 0b       	sbc	r20, r19
    2544:	56 0b       	sbc	r21, r22
    2546:	c9 0b       	sbc	r28, r25
    2548:	d0 09       	sbc	r29, r0
    254a:	98 f0       	brcs	.+38     	; 0x2572 <__ftoa_engine+0x19a>
    254c:	23 95       	inc	r18
    254e:	7e 91       	ld	r23, -X
    2550:	73 95       	inc	r23
    2552:	7a 33       	cpi	r23, 0x3A	; 58
    2554:	08 f0       	brcs	.+2      	; 0x2558 <__ftoa_engine+0x180>
    2556:	70 e3       	ldi	r23, 0x30	; 48
    2558:	7c 93       	st	X, r23
    255a:	20 13       	cpse	r18, r16
    255c:	b8 f7       	brcc	.-18     	; 0x254c <__ftoa_engine+0x174>
    255e:	7e 91       	ld	r23, -X
    2560:	70 61       	ori	r23, 0x10	; 16
    2562:	7d 93       	st	X+, r23
    2564:	30 f0       	brcs	.+12     	; 0x2572 <__ftoa_engine+0x19a>
    2566:	83 95       	inc	r24
    2568:	71 e3       	ldi	r23, 0x31	; 49
    256a:	7d 93       	st	X+, r23
    256c:	70 e3       	ldi	r23, 0x30	; 48
    256e:	2a 95       	dec	r18
    2570:	e1 f7       	brne	.-8      	; 0x256a <__ftoa_engine+0x192>
    2572:	11 24       	eor	r1, r1
    2574:	ef 90       	pop	r14
    2576:	ff 90       	pop	r15
    2578:	0f 91       	pop	r16
    257a:	1f 91       	pop	r17
    257c:	cf 91       	pop	r28
    257e:	df 91       	pop	r29
    2580:	99 27       	eor	r25, r25
    2582:	87 fd       	sbrc	r24, 7
    2584:	90 95       	com	r25
    2586:	08 95       	ret

00002588 <strnlen_P>:
    2588:	fc 01       	movw	r30, r24
    258a:	05 90       	lpm	r0, Z+
    258c:	61 50       	subi	r22, 0x01	; 1
    258e:	70 40       	sbci	r23, 0x00	; 0
    2590:	01 10       	cpse	r0, r1
    2592:	d8 f7       	brcc	.-10     	; 0x258a <strnlen_P+0x2>
    2594:	80 95       	com	r24
    2596:	90 95       	com	r25
    2598:	8e 0f       	add	r24, r30
    259a:	9f 1f       	adc	r25, r31
    259c:	08 95       	ret

0000259e <strnlen>:
    259e:	fc 01       	movw	r30, r24
    25a0:	61 50       	subi	r22, 0x01	; 1
    25a2:	70 40       	sbci	r23, 0x00	; 0
    25a4:	01 90       	ld	r0, Z+
    25a6:	01 10       	cpse	r0, r1
    25a8:	d8 f7       	brcc	.-10     	; 0x25a0 <strnlen+0x2>
    25aa:	80 95       	com	r24
    25ac:	90 95       	com	r25
    25ae:	8e 0f       	add	r24, r30
    25b0:	9f 1f       	adc	r25, r31
    25b2:	08 95       	ret

000025b4 <fputc>:
    25b4:	0f 93       	push	r16
    25b6:	1f 93       	push	r17
    25b8:	cf 93       	push	r28
    25ba:	df 93       	push	r29
    25bc:	fb 01       	movw	r30, r22
    25be:	23 81       	ldd	r18, Z+3	; 0x03
    25c0:	21 fd       	sbrc	r18, 1
    25c2:	03 c0       	rjmp	.+6      	; 0x25ca <fputc+0x16>
    25c4:	8f ef       	ldi	r24, 0xFF	; 255
    25c6:	9f ef       	ldi	r25, 0xFF	; 255
    25c8:	28 c0       	rjmp	.+80     	; 0x261a <fputc+0x66>
    25ca:	22 ff       	sbrs	r18, 2
    25cc:	16 c0       	rjmp	.+44     	; 0x25fa <fputc+0x46>
    25ce:	46 81       	ldd	r20, Z+6	; 0x06
    25d0:	57 81       	ldd	r21, Z+7	; 0x07
    25d2:	24 81       	ldd	r18, Z+4	; 0x04
    25d4:	35 81       	ldd	r19, Z+5	; 0x05
    25d6:	42 17       	cp	r20, r18
    25d8:	53 07       	cpc	r21, r19
    25da:	44 f4       	brge	.+16     	; 0x25ec <fputc+0x38>
    25dc:	a0 81       	ld	r26, Z
    25de:	b1 81       	ldd	r27, Z+1	; 0x01
    25e0:	9d 01       	movw	r18, r26
    25e2:	2f 5f       	subi	r18, 0xFF	; 255
    25e4:	3f 4f       	sbci	r19, 0xFF	; 255
    25e6:	31 83       	std	Z+1, r19	; 0x01
    25e8:	20 83       	st	Z, r18
    25ea:	8c 93       	st	X, r24
    25ec:	26 81       	ldd	r18, Z+6	; 0x06
    25ee:	37 81       	ldd	r19, Z+7	; 0x07
    25f0:	2f 5f       	subi	r18, 0xFF	; 255
    25f2:	3f 4f       	sbci	r19, 0xFF	; 255
    25f4:	37 83       	std	Z+7, r19	; 0x07
    25f6:	26 83       	std	Z+6, r18	; 0x06
    25f8:	10 c0       	rjmp	.+32     	; 0x261a <fputc+0x66>
    25fa:	eb 01       	movw	r28, r22
    25fc:	09 2f       	mov	r16, r25
    25fe:	18 2f       	mov	r17, r24
    2600:	00 84       	ldd	r0, Z+8	; 0x08
    2602:	f1 85       	ldd	r31, Z+9	; 0x09
    2604:	e0 2d       	mov	r30, r0
    2606:	09 95       	icall
    2608:	89 2b       	or	r24, r25
    260a:	e1 f6       	brne	.-72     	; 0x25c4 <fputc+0x10>
    260c:	8e 81       	ldd	r24, Y+6	; 0x06
    260e:	9f 81       	ldd	r25, Y+7	; 0x07
    2610:	01 96       	adiw	r24, 0x01	; 1
    2612:	9f 83       	std	Y+7, r25	; 0x07
    2614:	8e 83       	std	Y+6, r24	; 0x06
    2616:	81 2f       	mov	r24, r17
    2618:	90 2f       	mov	r25, r16
    261a:	df 91       	pop	r29
    261c:	cf 91       	pop	r28
    261e:	1f 91       	pop	r17
    2620:	0f 91       	pop	r16
    2622:	08 95       	ret

00002624 <sprintf>:
    2624:	ae e0       	ldi	r26, 0x0E	; 14
    2626:	b0 e0       	ldi	r27, 0x00	; 0
    2628:	e8 e1       	ldi	r30, 0x18	; 24
    262a:	f3 e1       	ldi	r31, 0x13	; 19
    262c:	0c 94 a1 11 	jmp	0x2342	; 0x2342 <__prologue_saves__+0x1c>
    2630:	0d 89       	ldd	r16, Y+21	; 0x15
    2632:	1e 89       	ldd	r17, Y+22	; 0x16
    2634:	86 e0       	ldi	r24, 0x06	; 6
    2636:	8c 83       	std	Y+4, r24	; 0x04
    2638:	1a 83       	std	Y+2, r17	; 0x02
    263a:	09 83       	std	Y+1, r16	; 0x01
    263c:	8f ef       	ldi	r24, 0xFF	; 255
    263e:	9f e7       	ldi	r25, 0x7F	; 127
    2640:	9e 83       	std	Y+6, r25	; 0x06
    2642:	8d 83       	std	Y+5, r24	; 0x05
    2644:	ae 01       	movw	r20, r28
    2646:	47 5e       	subi	r20, 0xE7	; 231
    2648:	5f 4f       	sbci	r21, 0xFF	; 255
    264a:	6f 89       	ldd	r22, Y+23	; 0x17
    264c:	78 8d       	ldd	r23, Y+24	; 0x18
    264e:	ce 01       	movw	r24, r28
    2650:	01 96       	adiw	r24, 0x01	; 1
    2652:	0e 94 f8 0d 	call	0x1bf0	; 0x1bf0 <vfprintf>
    2656:	2f 81       	ldd	r18, Y+7	; 0x07
    2658:	38 85       	ldd	r19, Y+8	; 0x08
    265a:	f8 01       	movw	r30, r16
    265c:	e2 0f       	add	r30, r18
    265e:	f3 1f       	adc	r31, r19
    2660:	10 82       	st	Z, r1
    2662:	2e 96       	adiw	r28, 0x0e	; 14
    2664:	e4 e0       	ldi	r30, 0x04	; 4
    2666:	0c 94 bd 11 	jmp	0x237a	; 0x237a <__epilogue_restores__+0x1c>

0000266a <__ultoa_invert>:
    266a:	fa 01       	movw	r30, r20
    266c:	aa 27       	eor	r26, r26
    266e:	28 30       	cpi	r18, 0x08	; 8
    2670:	51 f1       	breq	.+84     	; 0x26c6 <__ultoa_invert+0x5c>
    2672:	20 31       	cpi	r18, 0x10	; 16
    2674:	81 f1       	breq	.+96     	; 0x26d6 <__ultoa_invert+0x6c>
    2676:	e8 94       	clt
    2678:	6f 93       	push	r22
    267a:	6e 7f       	andi	r22, 0xFE	; 254
    267c:	6e 5f       	subi	r22, 0xFE	; 254
    267e:	7f 4f       	sbci	r23, 0xFF	; 255
    2680:	8f 4f       	sbci	r24, 0xFF	; 255
    2682:	9f 4f       	sbci	r25, 0xFF	; 255
    2684:	af 4f       	sbci	r26, 0xFF	; 255
    2686:	b1 e0       	ldi	r27, 0x01	; 1
    2688:	3e d0       	rcall	.+124    	; 0x2706 <__ultoa_invert+0x9c>
    268a:	b4 e0       	ldi	r27, 0x04	; 4
    268c:	3c d0       	rcall	.+120    	; 0x2706 <__ultoa_invert+0x9c>
    268e:	67 0f       	add	r22, r23
    2690:	78 1f       	adc	r23, r24
    2692:	89 1f       	adc	r24, r25
    2694:	9a 1f       	adc	r25, r26
    2696:	a1 1d       	adc	r26, r1
    2698:	68 0f       	add	r22, r24
    269a:	79 1f       	adc	r23, r25
    269c:	8a 1f       	adc	r24, r26
    269e:	91 1d       	adc	r25, r1
    26a0:	a1 1d       	adc	r26, r1
    26a2:	6a 0f       	add	r22, r26
    26a4:	71 1d       	adc	r23, r1
    26a6:	81 1d       	adc	r24, r1
    26a8:	91 1d       	adc	r25, r1
    26aa:	a1 1d       	adc	r26, r1
    26ac:	20 d0       	rcall	.+64     	; 0x26ee <__ultoa_invert+0x84>
    26ae:	09 f4       	brne	.+2      	; 0x26b2 <__ultoa_invert+0x48>
    26b0:	68 94       	set
    26b2:	3f 91       	pop	r19
    26b4:	2a e0       	ldi	r18, 0x0A	; 10
    26b6:	26 9f       	mul	r18, r22
    26b8:	11 24       	eor	r1, r1
    26ba:	30 19       	sub	r19, r0
    26bc:	30 5d       	subi	r19, 0xD0	; 208
    26be:	31 93       	st	Z+, r19
    26c0:	de f6       	brtc	.-74     	; 0x2678 <__ultoa_invert+0xe>
    26c2:	cf 01       	movw	r24, r30
    26c4:	08 95       	ret
    26c6:	46 2f       	mov	r20, r22
    26c8:	47 70       	andi	r20, 0x07	; 7
    26ca:	40 5d       	subi	r20, 0xD0	; 208
    26cc:	41 93       	st	Z+, r20
    26ce:	b3 e0       	ldi	r27, 0x03	; 3
    26d0:	0f d0       	rcall	.+30     	; 0x26f0 <__ultoa_invert+0x86>
    26d2:	c9 f7       	brne	.-14     	; 0x26c6 <__ultoa_invert+0x5c>
    26d4:	f6 cf       	rjmp	.-20     	; 0x26c2 <__ultoa_invert+0x58>
    26d6:	46 2f       	mov	r20, r22
    26d8:	4f 70       	andi	r20, 0x0F	; 15
    26da:	40 5d       	subi	r20, 0xD0	; 208
    26dc:	4a 33       	cpi	r20, 0x3A	; 58
    26de:	18 f0       	brcs	.+6      	; 0x26e6 <__ultoa_invert+0x7c>
    26e0:	49 5d       	subi	r20, 0xD9	; 217
    26e2:	31 fd       	sbrc	r19, 1
    26e4:	40 52       	subi	r20, 0x20	; 32
    26e6:	41 93       	st	Z+, r20
    26e8:	02 d0       	rcall	.+4      	; 0x26ee <__ultoa_invert+0x84>
    26ea:	a9 f7       	brne	.-22     	; 0x26d6 <__ultoa_invert+0x6c>
    26ec:	ea cf       	rjmp	.-44     	; 0x26c2 <__ultoa_invert+0x58>
    26ee:	b4 e0       	ldi	r27, 0x04	; 4
    26f0:	a6 95       	lsr	r26
    26f2:	97 95       	ror	r25
    26f4:	87 95       	ror	r24
    26f6:	77 95       	ror	r23
    26f8:	67 95       	ror	r22
    26fa:	ba 95       	dec	r27
    26fc:	c9 f7       	brne	.-14     	; 0x26f0 <__ultoa_invert+0x86>
    26fe:	00 97       	sbiw	r24, 0x00	; 0
    2700:	61 05       	cpc	r22, r1
    2702:	71 05       	cpc	r23, r1
    2704:	08 95       	ret
    2706:	9b 01       	movw	r18, r22
    2708:	ac 01       	movw	r20, r24
    270a:	0a 2e       	mov	r0, r26
    270c:	06 94       	lsr	r0
    270e:	57 95       	ror	r21
    2710:	47 95       	ror	r20
    2712:	37 95       	ror	r19
    2714:	27 95       	ror	r18
    2716:	ba 95       	dec	r27
    2718:	c9 f7       	brne	.-14     	; 0x270c <__ultoa_invert+0xa2>
    271a:	62 0f       	add	r22, r18
    271c:	73 1f       	adc	r23, r19
    271e:	84 1f       	adc	r24, r20
    2720:	95 1f       	adc	r25, r21
    2722:	a0 1d       	adc	r26, r0
    2724:	08 95       	ret

00002726 <_exit>:
    2726:	f8 94       	cli

00002728 <__stop_program>:
    2728:	ff cf       	rjmp	.-2      	; 0x2728 <__stop_program>
